Component: ARM Compiler 5.05 update 1 (build 106) Tool: armlink [4d0efa]

==============================================================================

Section Cross References

    startup_stm32f10x_hd.o(RESET) refers to startup_stm32f10x_hd.o(STACK) for __initial_sp
    startup_stm32f10x_hd.o(RESET) refers to startup_stm32f10x_hd.o(.text) for Reset_Handler
    startup_stm32f10x_hd.o(RESET) refers to stm32f10x_it.o(i.NMI_Handler) for NMI_Handler
    startup_stm32f10x_hd.o(RESET) refers to stm32f10x_it.o(i.HardFault_Handler) for HardFault_Handler
    startup_stm32f10x_hd.o(RESET) refers to stm32f10x_it.o(i.MemManage_Handler) for MemManage_Handler
    startup_stm32f10x_hd.o(RESET) refers to stm32f10x_it.o(i.BusFault_Handler) for BusFault_Handler
    startup_stm32f10x_hd.o(RESET) refers to stm32f10x_it.o(i.UsageFault_Handler) for UsageFault_Handler
    startup_stm32f10x_hd.o(RESET) refers to stm32f10x_it.o(i.SVC_Handler) for SVC_Handler
    startup_stm32f10x_hd.o(RESET) refers to stm32f10x_it.o(i.DebugMon_Handler) for DebugMon_Handler
    startup_stm32f10x_hd.o(RESET) refers to stm32f10x_it.o(i.PendSV_Handler) for PendSV_Handler
    startup_stm32f10x_hd.o(RESET) refers to systick.o(i.SysTick_Handler) for SysTick_Handler
    startup_stm32f10x_hd.o(RESET) refers to usart.o(i.USART1_IRQHandler) for USART1_IRQHandler
    startup_stm32f10x_hd.o(RESET) refers to usart.o(i.USART2_IRQHandler) for USART2_IRQHandler
    startup_stm32f10x_hd.o(RESET) refers to usart.o(i.USART3_IRQHandler) for USART3_IRQHandler
    startup_stm32f10x_hd.o(RESET) refers to usart.o(i.UART4_IRQHandler) for UART4_IRQHandler
    startup_stm32f10x_hd.o(RESET) refers to usart.o(i.UART5_IRQHandler) for UART5_IRQHandler
    startup_stm32f10x_hd.o(.text) refers to system_stm32f10x.o(i.SystemInit) for SystemInit
    startup_stm32f10x_hd.o(.text) refers to entry.o(.ARM.Collect$$$$00000000) for __main
    system_stm32f10x.o(i.SetSysClock) refers to system_stm32f10x.o(i.SetSysClockTo72) for SetSysClockTo72
    system_stm32f10x.o(i.SystemCoreClockUpdate) refers to system_stm32f10x.o(.data) for SystemCoreClock
    system_stm32f10x.o(i.SystemInit) refers to system_stm32f10x.o(i.SetSysClock) for SetSysClock
    stm32f10x_adc.o(i.ADC_DeInit) refers to stm32f10x_rcc.o(i.RCC_APB2PeriphResetCmd) for RCC_APB2PeriphResetCmd
    stm32f10x_bkp.o(i.BKP_DeInit) refers to stm32f10x_rcc.o(i.RCC_BackupResetCmd) for RCC_BackupResetCmd
    stm32f10x_can.o(i.CAN_DeInit) refers to stm32f10x_rcc.o(i.RCC_APB1PeriphResetCmd) for RCC_APB1PeriphResetCmd
    stm32f10x_can.o(i.CAN_GetITStatus) refers to stm32f10x_can.o(i.CheckITStatus) for CheckITStatus
    stm32f10x_cec.o(i.CEC_DeInit) refers to stm32f10x_rcc.o(i.RCC_APB1PeriphResetCmd) for RCC_APB1PeriphResetCmd
    stm32f10x_dac.o(i.DAC_DeInit) refers to stm32f10x_rcc.o(i.RCC_APB1PeriphResetCmd) for RCC_APB1PeriphResetCmd
    stm32f10x_flash.o(i.FLASH_EnableWriteProtection) refers to stm32f10x_flash.o(i.FLASH_WaitForLastOperation) for FLASH_WaitForLastOperation
    stm32f10x_flash.o(i.FLASH_EraseAllBank1Pages) refers to stm32f10x_flash.o(i.FLASH_WaitForLastBank1Operation) for FLASH_WaitForLastBank1Operation
    stm32f10x_flash.o(i.FLASH_EraseAllPages) refers to stm32f10x_flash.o(i.FLASH_WaitForLastOperation) for FLASH_WaitForLastOperation
    stm32f10x_flash.o(i.FLASH_EraseOptionBytes) refers to stm32f10x_flash.o(i.FLASH_GetReadOutProtectionStatus) for FLASH_GetReadOutProtectionStatus
    stm32f10x_flash.o(i.FLASH_EraseOptionBytes) refers to stm32f10x_flash.o(i.FLASH_WaitForLastOperation) for FLASH_WaitForLastOperation
    stm32f10x_flash.o(i.FLASH_ErasePage) refers to stm32f10x_flash.o(i.FLASH_WaitForLastOperation) for FLASH_WaitForLastOperation
    stm32f10x_flash.o(i.FLASH_ProgramHalfWord) refers to stm32f10x_flash.o(i.FLASH_WaitForLastOperation) for FLASH_WaitForLastOperation
    stm32f10x_flash.o(i.FLASH_ProgramOptionByteData) refers to stm32f10x_flash.o(i.FLASH_WaitForLastOperation) for FLASH_WaitForLastOperation
    stm32f10x_flash.o(i.FLASH_ProgramWord) refers to stm32f10x_flash.o(i.FLASH_WaitForLastOperation) for FLASH_WaitForLastOperation
    stm32f10x_flash.o(i.FLASH_ReadOutProtection) refers to stm32f10x_flash.o(i.FLASH_WaitForLastOperation) for FLASH_WaitForLastOperation
    stm32f10x_flash.o(i.FLASH_UserOptionByteConfig) refers to stm32f10x_flash.o(i.FLASH_WaitForLastOperation) for FLASH_WaitForLastOperation
    stm32f10x_flash.o(i.FLASH_WaitForLastBank1Operation) refers to stm32f10x_flash.o(i.FLASH_GetBank1Status) for FLASH_GetBank1Status
    stm32f10x_flash.o(i.FLASH_WaitForLastOperation) refers to stm32f10x_flash.o(i.FLASH_GetBank1Status) for FLASH_GetBank1Status
    stm32f10x_gpio.o(i.GPIO_AFIODeInit) refers to stm32f10x_rcc.o(i.RCC_APB2PeriphResetCmd) for RCC_APB2PeriphResetCmd
    stm32f10x_gpio.o(i.GPIO_DeInit) refers to stm32f10x_rcc.o(i.RCC_APB2PeriphResetCmd) for RCC_APB2PeriphResetCmd
    stm32f10x_i2c.o(i.I2C_DeInit) refers to stm32f10x_rcc.o(i.RCC_APB1PeriphResetCmd) for RCC_APB1PeriphResetCmd
    stm32f10x_i2c.o(i.I2C_Init) refers to stm32f10x_rcc.o(i.RCC_GetClocksFreq) for RCC_GetClocksFreq
    stm32f10x_pwr.o(i.PWR_DeInit) refers to stm32f10x_rcc.o(i.RCC_APB1PeriphResetCmd) for RCC_APB1PeriphResetCmd
    stm32f10x_rcc.o(i.RCC_GetClocksFreq) refers to stm32f10x_rcc.o(.data) for APBAHBPrescTable
    stm32f10x_rcc.o(i.RCC_WaitForHSEStartUp) refers to stm32f10x_rcc.o(i.RCC_GetFlagStatus) for RCC_GetFlagStatus
    stm32f10x_rtc.o(i.RTC_SetAlarm) refers to stm32f10x_rtc.o(i.RTC_EnterConfigMode) for RTC_EnterConfigMode
    stm32f10x_rtc.o(i.RTC_SetAlarm) refers to stm32f10x_rtc.o(i.RTC_ExitConfigMode) for RTC_ExitConfigMode
    stm32f10x_rtc.o(i.RTC_SetCounter) refers to stm32f10x_rtc.o(i.RTC_EnterConfigMode) for RTC_EnterConfigMode
    stm32f10x_rtc.o(i.RTC_SetCounter) refers to stm32f10x_rtc.o(i.RTC_ExitConfigMode) for RTC_ExitConfigMode
    stm32f10x_rtc.o(i.RTC_SetPrescaler) refers to stm32f10x_rtc.o(i.RTC_EnterConfigMode) for RTC_EnterConfigMode
    stm32f10x_rtc.o(i.RTC_SetPrescaler) refers to stm32f10x_rtc.o(i.RTC_ExitConfigMode) for RTC_ExitConfigMode
    stm32f10x_spi.o(i.I2S_Init) refers to stm32f10x_rcc.o(i.RCC_GetClocksFreq) for RCC_GetClocksFreq
    stm32f10x_spi.o(i.SPI_I2S_DeInit) refers to stm32f10x_rcc.o(i.RCC_APB2PeriphResetCmd) for RCC_APB2PeriphResetCmd
    stm32f10x_spi.o(i.SPI_I2S_DeInit) refers to stm32f10x_rcc.o(i.RCC_APB1PeriphResetCmd) for RCC_APB1PeriphResetCmd
    stm32f10x_tim.o(i.TIM_DeInit) refers to stm32f10x_rcc.o(i.RCC_APB2PeriphResetCmd) for RCC_APB2PeriphResetCmd
    stm32f10x_tim.o(i.TIM_DeInit) refers to stm32f10x_rcc.o(i.RCC_APB1PeriphResetCmd) for RCC_APB1PeriphResetCmd
    stm32f10x_tim.o(i.TIM_ETRClockMode1Config) refers to stm32f10x_tim.o(i.TIM_ETRConfig) for TIM_ETRConfig
    stm32f10x_tim.o(i.TIM_ETRClockMode2Config) refers to stm32f10x_tim.o(i.TIM_ETRConfig) for TIM_ETRConfig
    stm32f10x_tim.o(i.TIM_ICInit) refers to stm32f10x_tim.o(i.TI1_Config) for TI1_Config
    stm32f10x_tim.o(i.TIM_ICInit) refers to stm32f10x_tim.o(i.TIM_SetIC1Prescaler) for TIM_SetIC1Prescaler
    stm32f10x_tim.o(i.TIM_ICInit) refers to stm32f10x_tim.o(i.TI2_Config) for TI2_Config
    stm32f10x_tim.o(i.TIM_ICInit) refers to stm32f10x_tim.o(i.TIM_SetIC2Prescaler) for TIM_SetIC2Prescaler
    stm32f10x_tim.o(i.TIM_ICInit) refers to stm32f10x_tim.o(i.TI3_Config) for TI3_Config
    stm32f10x_tim.o(i.TIM_ICInit) refers to stm32f10x_tim.o(i.TIM_SetIC3Prescaler) for TIM_SetIC3Prescaler
    stm32f10x_tim.o(i.TIM_ICInit) refers to stm32f10x_tim.o(i.TI4_Config) for TI4_Config
    stm32f10x_tim.o(i.TIM_ICInit) refers to stm32f10x_tim.o(i.TIM_SetIC4Prescaler) for TIM_SetIC4Prescaler
    stm32f10x_tim.o(i.TIM_ITRxExternalClockConfig) refers to stm32f10x_tim.o(i.TIM_SelectInputTrigger) for TIM_SelectInputTrigger
    stm32f10x_tim.o(i.TIM_PWMIConfig) refers to stm32f10x_tim.o(i.TI1_Config) for TI1_Config
    stm32f10x_tim.o(i.TIM_PWMIConfig) refers to stm32f10x_tim.o(i.TIM_SetIC1Prescaler) for TIM_SetIC1Prescaler
    stm32f10x_tim.o(i.TIM_PWMIConfig) refers to stm32f10x_tim.o(i.TI2_Config) for TI2_Config
    stm32f10x_tim.o(i.TIM_PWMIConfig) refers to stm32f10x_tim.o(i.TIM_SetIC2Prescaler) for TIM_SetIC2Prescaler
    stm32f10x_tim.o(i.TIM_TIxExternalClockConfig) refers to stm32f10x_tim.o(i.TI2_Config) for TI2_Config
    stm32f10x_tim.o(i.TIM_TIxExternalClockConfig) refers to stm32f10x_tim.o(i.TI1_Config) for TI1_Config
    stm32f10x_tim.o(i.TIM_TIxExternalClockConfig) refers to stm32f10x_tim.o(i.TIM_SelectInputTrigger) for TIM_SelectInputTrigger
    stm32f10x_usart.o(i.USART_DeInit) refers to stm32f10x_rcc.o(i.RCC_APB2PeriphResetCmd) for RCC_APB2PeriphResetCmd
    stm32f10x_usart.o(i.USART_DeInit) refers to stm32f10x_rcc.o(i.RCC_APB1PeriphResetCmd) for RCC_APB1PeriphResetCmd
    stm32f10x_usart.o(i.USART_Init) refers to stm32f10x_rcc.o(i.RCC_GetClocksFreq) for RCC_GetClocksFreq
    stm32f10x_wwdg.o(i.WWDG_DeInit) refers to stm32f10x_rcc.o(i.RCC_APB1PeriphResetCmd) for RCC_APB1PeriphResetCmd
    cdh_fun_stm32.o(i.GPIO_Set_Bit) refers to stm32f10x_gpio.o(i.GPIO_SetBits) for GPIO_SetBits
    cdh_fun_stm32.o(i.GPIO_Set_Bit) refers to stm32f10x_gpio.o(i.GPIO_ResetBits) for GPIO_ResetBits
    data_helper.o(i.float_to_str) refers to f2d.o(.text) for __aeabi_f2d
    data_helper.o(i.float_to_str) refers to printfa.o(i.__0snprintf) for __2snprintf
    data_helper.o(i.int_to_str) refers to printfa.o(i.__0snprintf) for __2snprintf
    data_helper.o(i.str_to_float) refers to strtof.o(i.strtof) for strtof
    data_helper.o(i.str_to_int) refers to strtol.o(.text) for strtol
    cjson.o(i.add_item_to_array) refers to cjson.o(i.suffix_object) for suffix_object
    cjson.o(i.add_item_to_object) refers to cjson.o(i.cast_away_const) for cast_away_const
    cjson.o(i.add_item_to_object) refers to cjson.o(i.cJSON_strdup) for cJSON_strdup
    cjson.o(i.add_item_to_object) refers to cjson.o(i.add_item_to_array) for add_item_to_array
    cjson.o(i.cJSON_AddArrayToObject) refers to cjson.o(i.cJSON_CreateArray) for cJSON_CreateArray
    cjson.o(i.cJSON_AddArrayToObject) refers to cjson.o(i.add_item_to_object) for add_item_to_object
    cjson.o(i.cJSON_AddArrayToObject) refers to cjson.o(i.cJSON_Delete) for cJSON_Delete
    cjson.o(i.cJSON_AddArrayToObject) refers to cjson.o(.data) for global_hooks
    cjson.o(i.cJSON_AddBoolToObject) refers to cjson.o(i.cJSON_CreateBool) for cJSON_CreateBool
    cjson.o(i.cJSON_AddBoolToObject) refers to cjson.o(i.add_item_to_object) for add_item_to_object
    cjson.o(i.cJSON_AddBoolToObject) refers to cjson.o(i.cJSON_Delete) for cJSON_Delete
    cjson.o(i.cJSON_AddBoolToObject) refers to cjson.o(.data) for global_hooks
    cjson.o(i.cJSON_AddFalseToObject) refers to cjson.o(i.cJSON_CreateFalse) for cJSON_CreateFalse
    cjson.o(i.cJSON_AddFalseToObject) refers to cjson.o(i.add_item_to_object) for add_item_to_object
    cjson.o(i.cJSON_AddFalseToObject) refers to cjson.o(i.cJSON_Delete) for cJSON_Delete
    cjson.o(i.cJSON_AddFalseToObject) refers to cjson.o(.data) for global_hooks
    cjson.o(i.cJSON_AddItemReferenceToArray) refers to cjson.o(i.create_reference) for create_reference
    cjson.o(i.cJSON_AddItemReferenceToArray) refers to cjson.o(i.add_item_to_array) for add_item_to_array
    cjson.o(i.cJSON_AddItemReferenceToArray) refers to cjson.o(.data) for global_hooks
    cjson.o(i.cJSON_AddItemReferenceToObject) refers to cjson.o(i.create_reference) for create_reference
    cjson.o(i.cJSON_AddItemReferenceToObject) refers to cjson.o(i.add_item_to_object) for add_item_to_object
    cjson.o(i.cJSON_AddItemReferenceToObject) refers to cjson.o(.data) for global_hooks
    cjson.o(i.cJSON_AddItemToArray) refers to cjson.o(i.add_item_to_array) for add_item_to_array
    cjson.o(i.cJSON_AddItemToObject) refers to cjson.o(i.add_item_to_object) for add_item_to_object
    cjson.o(i.cJSON_AddItemToObject) refers to cjson.o(.data) for global_hooks
    cjson.o(i.cJSON_AddItemToObjectCS) refers to cjson.o(i.add_item_to_object) for add_item_to_object
    cjson.o(i.cJSON_AddItemToObjectCS) refers to cjson.o(.data) for global_hooks
    cjson.o(i.cJSON_AddNullToObject) refers to cjson.o(i.cJSON_CreateNull) for cJSON_CreateNull
    cjson.o(i.cJSON_AddNullToObject) refers to cjson.o(i.add_item_to_object) for add_item_to_object
    cjson.o(i.cJSON_AddNullToObject) refers to cjson.o(i.cJSON_Delete) for cJSON_Delete
    cjson.o(i.cJSON_AddNullToObject) refers to cjson.o(.data) for global_hooks
    cjson.o(i.cJSON_AddNumberToObject) refers to cjson.o(i.cJSON_CreateNumber) for cJSON_CreateNumber
    cjson.o(i.cJSON_AddNumberToObject) refers to cjson.o(i.add_item_to_object) for add_item_to_object
    cjson.o(i.cJSON_AddNumberToObject) refers to cjson.o(i.cJSON_Delete) for cJSON_Delete
    cjson.o(i.cJSON_AddNumberToObject) refers to cjson.o(.data) for global_hooks
    cjson.o(i.cJSON_AddObjectToObject) refers to cjson.o(i.cJSON_CreateObject) for cJSON_CreateObject
    cjson.o(i.cJSON_AddObjectToObject) refers to cjson.o(i.add_item_to_object) for add_item_to_object
    cjson.o(i.cJSON_AddObjectToObject) refers to cjson.o(i.cJSON_Delete) for cJSON_Delete
    cjson.o(i.cJSON_AddObjectToObject) refers to cjson.o(.data) for global_hooks
    cjson.o(i.cJSON_AddRawToObject) refers to cjson.o(i.cJSON_CreateRaw) for cJSON_CreateRaw
    cjson.o(i.cJSON_AddRawToObject) refers to cjson.o(i.add_item_to_object) for add_item_to_object
    cjson.o(i.cJSON_AddRawToObject) refers to cjson.o(i.cJSON_Delete) for cJSON_Delete
    cjson.o(i.cJSON_AddRawToObject) refers to cjson.o(.data) for global_hooks
    cjson.o(i.cJSON_AddStringToObject) refers to cjson.o(i.cJSON_CreateString) for cJSON_CreateString
    cjson.o(i.cJSON_AddStringToObject) refers to cjson.o(i.add_item_to_object) for add_item_to_object
    cjson.o(i.cJSON_AddStringToObject) refers to cjson.o(i.cJSON_Delete) for cJSON_Delete
    cjson.o(i.cJSON_AddStringToObject) refers to cjson.o(.data) for global_hooks
    cjson.o(i.cJSON_AddTrueToObject) refers to cjson.o(i.cJSON_CreateTrue) for cJSON_CreateTrue
    cjson.o(i.cJSON_AddTrueToObject) refers to cjson.o(i.add_item_to_object) for add_item_to_object
    cjson.o(i.cJSON_AddTrueToObject) refers to cjson.o(i.cJSON_Delete) for cJSON_Delete
    cjson.o(i.cJSON_AddTrueToObject) refers to cjson.o(.data) for global_hooks
    cjson.o(i.cJSON_Compare) refers to cjson.o(i.compare_double) for compare_double
    cjson.o(i.cJSON_Compare) refers to strcmp.o(.text) for strcmp
    cjson.o(i.cJSON_Compare) refers to cjson.o(i.get_object_item) for get_object_item
    cjson.o(i.cJSON_CreateArray) refers to cjson.o(i.cJSON_New_Item) for cJSON_New_Item
    cjson.o(i.cJSON_CreateArray) refers to cjson.o(.data) for global_hooks
    cjson.o(i.cJSON_CreateArrayReference) refers to cjson.o(i.cJSON_New_Item) for cJSON_New_Item
    cjson.o(i.cJSON_CreateArrayReference) refers to cjson.o(i.cast_away_const) for cast_away_const
    cjson.o(i.cJSON_CreateArrayReference) refers to cjson.o(.data) for global_hooks
    cjson.o(i.cJSON_CreateBool) refers to cjson.o(i.cJSON_New_Item) for cJSON_New_Item
    cjson.o(i.cJSON_CreateBool) refers to cjson.o(.data) for global_hooks
    cjson.o(i.cJSON_CreateDoubleArray) refers to cjson.o(i.cJSON_CreateArray) for cJSON_CreateArray
    cjson.o(i.cJSON_CreateDoubleArray) refers to cjson.o(i.cJSON_CreateNumber) for cJSON_CreateNumber
    cjson.o(i.cJSON_CreateDoubleArray) refers to cjson.o(i.cJSON_Delete) for cJSON_Delete
    cjson.o(i.cJSON_CreateDoubleArray) refers to cjson.o(i.suffix_object) for suffix_object
    cjson.o(i.cJSON_CreateFalse) refers to cjson.o(i.cJSON_New_Item) for cJSON_New_Item
    cjson.o(i.cJSON_CreateFalse) refers to cjson.o(.data) for global_hooks
    cjson.o(i.cJSON_CreateFloatArray) refers to cjson.o(i.cJSON_CreateArray) for cJSON_CreateArray
    cjson.o(i.cJSON_CreateFloatArray) refers to f2d.o(.text) for __aeabi_f2d
    cjson.o(i.cJSON_CreateFloatArray) refers to cjson.o(i.cJSON_CreateNumber) for cJSON_CreateNumber
    cjson.o(i.cJSON_CreateFloatArray) refers to cjson.o(i.cJSON_Delete) for cJSON_Delete
    cjson.o(i.cJSON_CreateFloatArray) refers to cjson.o(i.suffix_object) for suffix_object
    cjson.o(i.cJSON_CreateIntArray) refers to cjson.o(i.cJSON_CreateArray) for cJSON_CreateArray
    cjson.o(i.cJSON_CreateIntArray) refers to dflti.o(.text) for __aeabi_i2d
    cjson.o(i.cJSON_CreateIntArray) refers to cjson.o(i.cJSON_CreateNumber) for cJSON_CreateNumber
    cjson.o(i.cJSON_CreateIntArray) refers to cjson.o(i.cJSON_Delete) for cJSON_Delete
    cjson.o(i.cJSON_CreateIntArray) refers to cjson.o(i.suffix_object) for suffix_object
    cjson.o(i.cJSON_CreateNull) refers to cjson.o(i.cJSON_New_Item) for cJSON_New_Item
    cjson.o(i.cJSON_CreateNull) refers to cjson.o(.data) for global_hooks
    cjson.o(i.cJSON_CreateNumber) refers to cjson.o(i.cJSON_New_Item) for cJSON_New_Item
    cjson.o(i.cJSON_CreateNumber) refers to cdrcmple.o(.text) for __aeabi_cdrcmple
    cjson.o(i.cJSON_CreateNumber) refers to cdcmple.o(.text) for __aeabi_cdcmple
    cjson.o(i.cJSON_CreateNumber) refers to dfixi.o(.text) for __aeabi_d2iz
    cjson.o(i.cJSON_CreateNumber) refers to cjson.o(.data) for global_hooks
    cjson.o(i.cJSON_CreateObject) refers to cjson.o(i.cJSON_New_Item) for cJSON_New_Item
    cjson.o(i.cJSON_CreateObject) refers to cjson.o(.data) for global_hooks
    cjson.o(i.cJSON_CreateObjectReference) refers to cjson.o(i.cJSON_New_Item) for cJSON_New_Item
    cjson.o(i.cJSON_CreateObjectReference) refers to cjson.o(i.cast_away_const) for cast_away_const
    cjson.o(i.cJSON_CreateObjectReference) refers to cjson.o(.data) for global_hooks
    cjson.o(i.cJSON_CreateRaw) refers to cjson.o(i.cJSON_New_Item) for cJSON_New_Item
    cjson.o(i.cJSON_CreateRaw) refers to cjson.o(i.cJSON_strdup) for cJSON_strdup
    cjson.o(i.cJSON_CreateRaw) refers to cjson.o(i.cJSON_Delete) for cJSON_Delete
    cjson.o(i.cJSON_CreateRaw) refers to cjson.o(.data) for global_hooks
    cjson.o(i.cJSON_CreateString) refers to cjson.o(i.cJSON_New_Item) for cJSON_New_Item
    cjson.o(i.cJSON_CreateString) refers to cjson.o(i.cJSON_strdup) for cJSON_strdup
    cjson.o(i.cJSON_CreateString) refers to cjson.o(i.cJSON_Delete) for cJSON_Delete
    cjson.o(i.cJSON_CreateString) refers to cjson.o(.data) for global_hooks
    cjson.o(i.cJSON_CreateStringArray) refers to cjson.o(i.cJSON_CreateArray) for cJSON_CreateArray
    cjson.o(i.cJSON_CreateStringArray) refers to cjson.o(i.cJSON_CreateString) for cJSON_CreateString
    cjson.o(i.cJSON_CreateStringArray) refers to cjson.o(i.cJSON_Delete) for cJSON_Delete
    cjson.o(i.cJSON_CreateStringArray) refers to cjson.o(i.suffix_object) for suffix_object
    cjson.o(i.cJSON_CreateStringReference) refers to cjson.o(i.cJSON_New_Item) for cJSON_New_Item
    cjson.o(i.cJSON_CreateStringReference) refers to cjson.o(i.cast_away_const) for cast_away_const
    cjson.o(i.cJSON_CreateStringReference) refers to cjson.o(.data) for global_hooks
    cjson.o(i.cJSON_CreateTrue) refers to cjson.o(i.cJSON_New_Item) for cJSON_New_Item
    cjson.o(i.cJSON_CreateTrue) refers to cjson.o(.data) for global_hooks
    cjson.o(i.cJSON_Delete) refers to cjson.o(.data) for global_hooks
    cjson.o(i.cJSON_DeleteItemFromArray) refers to cjson.o(i.cJSON_DetachItemFromArray) for cJSON_DetachItemFromArray
    cjson.o(i.cJSON_DeleteItemFromArray) refers to cjson.o(i.cJSON_Delete) for cJSON_Delete
    cjson.o(i.cJSON_DeleteItemFromObject) refers to cjson.o(i.cJSON_DetachItemFromObject) for cJSON_DetachItemFromObject
    cjson.o(i.cJSON_DeleteItemFromObject) refers to cjson.o(i.cJSON_Delete) for cJSON_Delete
    cjson.o(i.cJSON_DeleteItemFromObjectCaseSensitive) refers to cjson.o(i.cJSON_DetachItemFromObjectCaseSensitive) for cJSON_DetachItemFromObjectCaseSensitive
    cjson.o(i.cJSON_DeleteItemFromObjectCaseSensitive) refers to cjson.o(i.cJSON_Delete) for cJSON_Delete
    cjson.o(i.cJSON_DetachItemFromArray) refers to cjson.o(i.get_array_item) for get_array_item
    cjson.o(i.cJSON_DetachItemFromArray) refers to cjson.o(i.cJSON_DetachItemViaPointer) for cJSON_DetachItemViaPointer
    cjson.o(i.cJSON_DetachItemFromObject) refers to cjson.o(i.cJSON_GetObjectItem) for cJSON_GetObjectItem
    cjson.o(i.cJSON_DetachItemFromObject) refers to cjson.o(i.cJSON_DetachItemViaPointer) for cJSON_DetachItemViaPointer
    cjson.o(i.cJSON_DetachItemFromObjectCaseSensitive) refers to cjson.o(i.cJSON_GetObjectItemCaseSensitive) for cJSON_GetObjectItemCaseSensitive
    cjson.o(i.cJSON_DetachItemFromObjectCaseSensitive) refers to cjson.o(i.cJSON_DetachItemViaPointer) for cJSON_DetachItemViaPointer
    cjson.o(i.cJSON_Duplicate) refers to cjson.o(i.cJSON_New_Item) for cJSON_New_Item
    cjson.o(i.cJSON_Duplicate) refers to cjson.o(i.cJSON_strdup) for cJSON_strdup
    cjson.o(i.cJSON_Duplicate) refers to cjson.o(i.cJSON_Delete) for cJSON_Delete
    cjson.o(i.cJSON_Duplicate) refers to cjson.o(.data) for global_hooks
    cjson.o(i.cJSON_GetArrayItem) refers to cjson.o(i.get_array_item) for get_array_item
    cjson.o(i.cJSON_GetErrorPtr) refers to cjson.o(.data) for global_error
    cjson.o(i.cJSON_GetNumberValue) refers to cjson.o(i.cJSON_IsNumber) for cJSON_IsNumber
    cjson.o(i.cJSON_GetObjectItem) refers to cjson.o(i.get_object_item) for get_object_item
    cjson.o(i.cJSON_GetObjectItemCaseSensitive) refers to cjson.o(i.get_object_item) for get_object_item
    cjson.o(i.cJSON_GetStringValue) refers to cjson.o(i.cJSON_IsString) for cJSON_IsString
    cjson.o(i.cJSON_HasObjectItem) refers to cjson.o(i.cJSON_GetObjectItem) for cJSON_GetObjectItem
    cjson.o(i.cJSON_InitHooks) refers to mallocr.o(i.__malloc$realloc) for malloc
    cjson.o(i.cJSON_InitHooks) refers to cjson.o(.data) for global_hooks
    cjson.o(i.cJSON_InitHooks) refers to mallocr.o(i.__free$realloc) for free
    cjson.o(i.cJSON_InitHooks) refers to mallocr.o(i.realloc) for realloc
    cjson.o(i.cJSON_InsertItemInArray) refers to cjson.o(i.get_array_item) for get_array_item
    cjson.o(i.cJSON_InsertItemInArray) refers to cjson.o(i.add_item_to_array) for add_item_to_array
    cjson.o(i.cJSON_Minify) refers to cjson.o(i.skip_oneline_comment) for skip_oneline_comment
    cjson.o(i.cJSON_Minify) refers to cjson.o(i.skip_multiline_comment) for skip_multiline_comment
    cjson.o(i.cJSON_Minify) refers to cjson.o(i.minify_string) for minify_string
    cjson.o(i.cJSON_New_Item) refers to memseta.o(.text) for __aeabi_memclr4
    cjson.o(i.cJSON_Parse) refers to cjson.o(i.cJSON_ParseWithOpts) for cJSON_ParseWithOpts
    cjson.o(i.cJSON_ParseWithLength) refers to cjson.o(i.cJSON_ParseWithLengthOpts) for cJSON_ParseWithLengthOpts
    cjson.o(i.cJSON_ParseWithLengthOpts) refers to memseta.o(.text) for __aeabi_memclr4
    cjson.o(i.cJSON_ParseWithLengthOpts) refers to cjson.o(i.cJSON_New_Item) for cJSON_New_Item
    cjson.o(i.cJSON_ParseWithLengthOpts) refers to cjson.o(i.skip_utf8_bom) for skip_utf8_bom
    cjson.o(i.cJSON_ParseWithLengthOpts) refers to cjson.o(i.buffer_skip_whitespace) for buffer_skip_whitespace
    cjson.o(i.cJSON_ParseWithLengthOpts) refers to cjson.o(i.parse_value) for parse_value
    cjson.o(i.cJSON_ParseWithLengthOpts) refers to cjson.o(i.cJSON_Delete) for cJSON_Delete
    cjson.o(i.cJSON_ParseWithLengthOpts) refers to cjson.o(.data) for global_error
    cjson.o(i.cJSON_ParseWithOpts) refers to strlen.o(.text) for strlen
    cjson.o(i.cJSON_ParseWithOpts) refers to cjson.o(i.cJSON_ParseWithLengthOpts) for cJSON_ParseWithLengthOpts
    cjson.o(i.cJSON_Print) refers to cjson.o(i.print) for print
    cjson.o(i.cJSON_Print) refers to cjson.o(.data) for global_hooks
    cjson.o(i.cJSON_PrintBuffered) refers to memseta.o(.text) for __aeabi_memclr4
    cjson.o(i.cJSON_PrintBuffered) refers to cjson.o(i.print_value) for print_value
    cjson.o(i.cJSON_PrintBuffered) refers to cjson.o(.data) for global_hooks
    cjson.o(i.cJSON_PrintPreallocated) refers to memseta.o(.text) for __aeabi_memclr4
    cjson.o(i.cJSON_PrintPreallocated) refers to cjson.o(i.print_value) for print_value
    cjson.o(i.cJSON_PrintPreallocated) refers to cjson.o(.data) for global_hooks
    cjson.o(i.cJSON_PrintUnformatted) refers to cjson.o(i.print) for print
    cjson.o(i.cJSON_PrintUnformatted) refers to cjson.o(.data) for global_hooks
    cjson.o(i.cJSON_ReplaceItemInArray) refers to cjson.o(i.get_array_item) for get_array_item
    cjson.o(i.cJSON_ReplaceItemInArray) refers to cjson.o(i.cJSON_ReplaceItemViaPointer) for cJSON_ReplaceItemViaPointer
    cjson.o(i.cJSON_ReplaceItemInObject) refers to cjson.o(i.replace_item_in_object) for replace_item_in_object
    cjson.o(i.cJSON_ReplaceItemInObjectCaseSensitive) refers to cjson.o(i.replace_item_in_object) for replace_item_in_object
    cjson.o(i.cJSON_ReplaceItemViaPointer) refers to cjson.o(i.cJSON_Delete) for cJSON_Delete
    cjson.o(i.cJSON_SetNumberHelper) refers to cdrcmple.o(.text) for __aeabi_cdrcmple
    cjson.o(i.cJSON_SetNumberHelper) refers to cdcmple.o(.text) for __aeabi_cdcmple
    cjson.o(i.cJSON_SetNumberHelper) refers to dfixi.o(.text) for __aeabi_d2iz
    cjson.o(i.cJSON_SetValuestring) refers to strlen.o(.text) for strlen
    cjson.o(i.cJSON_SetValuestring) refers to strcpy.o(.text) for strcpy
    cjson.o(i.cJSON_SetValuestring) refers to cjson.o(i.cJSON_strdup) for cJSON_strdup
    cjson.o(i.cJSON_SetValuestring) refers to cjson.o(i.cJSON_free) for cJSON_free
    cjson.o(i.cJSON_SetValuestring) refers to cjson.o(.data) for global_hooks
    cjson.o(i.cJSON_Version) refers to printfa.o(i.__0sprintf) for __2sprintf
    cjson.o(i.cJSON_Version) refers to cjson.o(.bss) for version
    cjson.o(i.cJSON_free) refers to cjson.o(.data) for global_hooks
    cjson.o(i.cJSON_malloc) refers to cjson.o(.data) for global_hooks
    cjson.o(i.cJSON_strdup) refers to strlen.o(.text) for strlen
    cjson.o(i.cJSON_strdup) refers to memcpya.o(.text) for __aeabi_memcpy
    cjson.o(i.case_insensitive_strcmp) refers to tolower.o(.text) for tolower
    cjson.o(i.compare_double) refers to cdrcmple.o(.text) for __aeabi_cdrcmple
    cjson.o(i.compare_double) refers to dmul.o(.text) for __aeabi_dmul
    cjson.o(i.compare_double) refers to dadd.o(.text) for __aeabi_dsub
    cjson.o(i.compare_double) refers to cdcmple.o(.text) for __aeabi_cdcmple
    cjson.o(i.create_reference) refers to cjson.o(i.cJSON_New_Item) for cJSON_New_Item
    cjson.o(i.create_reference) refers to memcpya.o(.text) for __aeabi_memcpy4
    cjson.o(i.ensure) refers to memcpya.o(.text) for __aeabi_memcpy
    cjson.o(i.get_object_item) refers to strcmp.o(.text) for strcmp
    cjson.o(i.get_object_item) refers to cjson.o(i.case_insensitive_strcmp) for case_insensitive_strcmp
    cjson.o(i.parse_array) refers to cjson.o(i.buffer_skip_whitespace) for buffer_skip_whitespace
    cjson.o(i.parse_array) refers to cjson.o(i.cJSON_New_Item) for cJSON_New_Item
    cjson.o(i.parse_array) refers to cjson.o(i.parse_value) for parse_value
    cjson.o(i.parse_array) refers to cjson.o(i.cJSON_Delete) for cJSON_Delete
    cjson.o(i.parse_number) refers to cjson.o(i.get_decimal_point) for get_decimal_point
    cjson.o(i.parse_number) refers to strtod.o(i.strtod) for strtod
    cjson.o(i.parse_number) refers to cdrcmple.o(.text) for __aeabi_cdrcmple
    cjson.o(i.parse_number) refers to cdcmple.o(.text) for __aeabi_cdcmple
    cjson.o(i.parse_number) refers to dfixi.o(.text) for __aeabi_d2iz
    cjson.o(i.parse_object) refers to cjson.o(i.buffer_skip_whitespace) for buffer_skip_whitespace
    cjson.o(i.parse_object) refers to cjson.o(i.cJSON_New_Item) for cJSON_New_Item
    cjson.o(i.parse_object) refers to cjson.o(i.parse_string) for parse_string
    cjson.o(i.parse_object) refers to cjson.o(i.parse_value) for parse_value
    cjson.o(i.parse_object) refers to cjson.o(i.cJSON_Delete) for cJSON_Delete
    cjson.o(i.parse_string) refers to cjson.o(i.utf16_literal_to_utf8) for utf16_literal_to_utf8
    cjson.o(i.parse_value) refers to strncmp.o(.text) for strncmp
    cjson.o(i.parse_value) refers to cjson.o(i.parse_string) for parse_string
    cjson.o(i.parse_value) refers to cjson.o(i.parse_number) for parse_number
    cjson.o(i.parse_value) refers to cjson.o(i.parse_array) for parse_array
    cjson.o(i.parse_value) refers to cjson.o(i.parse_object) for parse_object
    cjson.o(i.print) refers to memseta.o(.text) for __aeabi_memclr4
    cjson.o(i.print) refers to cjson.o(i.print_value) for print_value
    cjson.o(i.print) refers to cjson.o(i.update_offset) for update_offset
    cjson.o(i.print) refers to memcpya.o(.text) for __aeabi_memcpy
    cjson.o(i.print_array) refers to cjson.o(i.ensure) for ensure
    cjson.o(i.print_array) refers to cjson.o(i.print_value) for print_value
    cjson.o(i.print_array) refers to cjson.o(i.update_offset) for update_offset
    cjson.o(i.print_number) refers to scanf_fp.o(.text) for _scanf_real
    cjson.o(i.print_number) refers to memseta.o(.text) for __aeabi_memclr4
    cjson.o(i.print_number) refers to cjson.o(i.get_decimal_point) for get_decimal_point
    cjson.o(i.print_number) refers to printfa.o(i.__0sprintf) for __2sprintf
    cjson.o(i.print_number) refers to dflti.o(.text) for __aeabi_i2d
    cjson.o(i.print_number) refers to cdcmple.o(.text) for __aeabi_cdcmpeq
    cjson.o(i.print_number) refers to __0sscanf.o(.text) for __0sscanf
    cjson.o(i.print_number) refers to cjson.o(i.compare_double) for compare_double
    cjson.o(i.print_number) refers to cjson.o(i.ensure) for ensure
    cjson.o(i.print_object) refers to cjson.o(i.ensure) for ensure
    cjson.o(i.print_object) refers to cjson.o(i.print_string_ptr) for print_string_ptr
    cjson.o(i.print_object) refers to cjson.o(i.update_offset) for update_offset
    cjson.o(i.print_object) refers to cjson.o(i.print_value) for print_value
    cjson.o(i.print_string) refers to cjson.o(i.print_string_ptr) for print_string_ptr
    cjson.o(i.print_string_ptr) refers to cjson.o(i.ensure) for ensure
    cjson.o(i.print_string_ptr) refers to strcpy.o(.text) for strcpy
    cjson.o(i.print_string_ptr) refers to memcpya.o(.text) for __aeabi_memcpy
    cjson.o(i.print_string_ptr) refers to printfa.o(i.__0sprintf) for __2sprintf
    cjson.o(i.print_value) refers to cjson.o(i.ensure) for ensure
    cjson.o(i.print_value) refers to strcpy.o(.text) for strcpy
    cjson.o(i.print_value) refers to cjson.o(i.print_number) for print_number
    cjson.o(i.print_value) refers to strlen.o(.text) for strlen
    cjson.o(i.print_value) refers to memcpya.o(.text) for __aeabi_memcpy
    cjson.o(i.print_value) refers to cjson.o(i.print_string) for print_string
    cjson.o(i.print_value) refers to cjson.o(i.print_array) for print_array
    cjson.o(i.print_value) refers to cjson.o(i.print_object) for print_object
    cjson.o(i.replace_item_in_object) refers to cjson.o(i.cJSON_free) for cJSON_free
    cjson.o(i.replace_item_in_object) refers to cjson.o(i.cJSON_strdup) for cJSON_strdup
    cjson.o(i.replace_item_in_object) refers to cjson.o(i.get_object_item) for get_object_item
    cjson.o(i.replace_item_in_object) refers to cjson.o(i.cJSON_ReplaceItemViaPointer) for cJSON_ReplaceItemViaPointer
    cjson.o(i.replace_item_in_object) refers to cjson.o(.data) for global_hooks
    cjson.o(i.skip_utf8_bom) refers to strncmp.o(.text) for strncmp
    cjson.o(i.update_offset) refers to strlen.o(.text) for strlen
    cjson.o(i.utf16_literal_to_utf8) refers to cjson.o(i.parse_hex4) for parse_hex4
    cjson.o(.data) refers to mallocr.o(i.__malloc$realloc) for malloc
    cjson.o(.data) refers to mallocr.o(i.__free$realloc) for free
    cjson.o(.data) refers to mallocr.o(i.realloc) for realloc
    system.o(i.SysInit) refers to misc.o(i.NVIC_PriorityGroupConfig) for NVIC_PriorityGroupConfig
    system.o(i.SysInit) refers to systick.o(i.SystickInit) for SystickInit
    systick.o(i.DelayMs) refers to systick.o(.bss) for sysTimer
    systick.o(i.SysTick_Handler) refers to systick.o(.bss) for sysTimer
    systick.o(i.SystickInit) refers to systick.o(.bss) for sysTimer
    task.o(i.Task1) refers to servo.o(i.Door_ON) for Door_ON
    task.o(i.Task1) refers to servo.o(i.Door_OFF) for Door_OFF
    task.o(i.Task1) refers to systick.o(.bss) for sysTimer
    task.o(i.Task1) refers to task.o(.constdata) for ConstTaskTime
    task.o(i.Task1) refers to order.o(.data) for is_EIC
    task.o(i.Task2) refers to order.o(i.update_code) for update_code
    task.o(i.Task2) refers to printfa.o(i.__0printf) for __2printf
    task.o(i.Task2) refers to systick.o(.bss) for sysTimer
    task.o(i.Task2) refers to task.o(.constdata) for ConstTaskTime
    task.o(i.Task3) refers to systick.o(.bss) for sysTimer
    task.o(i.Task3) refers to task.o(.constdata) for ConstTaskTime
    task.o(i.Task4) refers to systick.o(.bss) for sysTimer
    task.o(i.Task4) refers to task.o(.constdata) for ConstTaskTime
    usart.o(i.UART4_IRQHandler) refers to stm32f10x_usart.o(i.USART_GetITStatus) for USART_GetITStatus
    usart.o(i.UART4_IRQHandler) refers to stm32f10x_usart.o(i.USART_ReceiveData) for USART_ReceiveData
    usart.o(i.UART4_IRQHandler) refers to stm32f10x_usart.o(i.USART_ClearITPendingBit) for USART_ClearITPendingBit
    usart.o(i.UART4_IRQHandler) refers to systick.o(.bss) for sysTimer
    usart.o(i.UART4_IRQHandler) refers to usart.o(.data) for uart4_pos
    usart.o(i.UART4_IRQHandler) refers to usart.o(.bss) for uart4_rx_buf
    usart.o(i.UART4_RecProcess) refers to order.o(i.receive_order) for receive_order
    usart.o(i.UART4_RecProcess) refers to memseta.o(.text) for __aeabi_memclr
    usart.o(i.UART4_RecProcess) refers to systick.o(.bss) for sysTimer
    usart.o(i.UART4_RecProcess) refers to usart.o(.data) for uart4_pos
    usart.o(i.UART4_RecProcess) refers to usart.o(.bss) for uart4_rx_buf
    usart.o(i.UART5_IRQHandler) refers to stm32f10x_usart.o(i.USART_GetITStatus) for USART_GetITStatus
    usart.o(i.UART5_IRQHandler) refers to stm32f10x_usart.o(i.USART_ReceiveData) for USART_ReceiveData
    usart.o(i.UART5_IRQHandler) refers to stm32f10x_usart.o(i.USART_ClearITPendingBit) for USART_ClearITPendingBit
    usart.o(i.UART5_IRQHandler) refers to systick.o(.bss) for sysTimer
    usart.o(i.UART5_IRQHandler) refers to usart.o(.data) for uart5_pos
    usart.o(i.UART5_IRQHandler) refers to usart.o(.bss) for uart5_rx_buf
    usart.o(i.USART1_IRQHandler) refers to stm32f10x_usart.o(i.USART_GetITStatus) for USART_GetITStatus
    usart.o(i.USART1_IRQHandler) refers to stm32f10x_usart.o(i.USART_ReceiveData) for USART_ReceiveData
    usart.o(i.USART1_IRQHandler) refers to stm32f10x_usart.o(i.USART_ClearITPendingBit) for USART_ClearITPendingBit
    usart.o(i.USART1_IRQHandler) refers to systick.o(.bss) for sysTimer
    usart.o(i.USART1_IRQHandler) refers to usart.o(.data) for usart1_pos
    usart.o(i.USART1_IRQHandler) refers to usart.o(.bss) for usart1_rx_buf
    usart.o(i.USART1_RecProcess) refers to uasrttft.o(i.DisposeUsartTTFT) for DisposeUsartTTFT
    usart.o(i.USART1_RecProcess) refers to memseta.o(.text) for __aeabi_memclr
    usart.o(i.USART1_RecProcess) refers to systick.o(.bss) for sysTimer
    usart.o(i.USART1_RecProcess) refers to usart.o(.data) for usart1_pos
    usart.o(i.USART1_RecProcess) refers to usart.o(.bss) for usart1_rx_buf
    usart.o(i.USART2_IRQHandler) refers to stm32f10x_usart.o(i.USART_GetITStatus) for USART_GetITStatus
    usart.o(i.USART2_IRQHandler) refers to stm32f10x_usart.o(i.USART_ReceiveData) for USART_ReceiveData
    usart.o(i.USART2_IRQHandler) refers to stm32f10x_usart.o(i.USART_ClearITPendingBit) for USART_ClearITPendingBit
    usart.o(i.USART2_IRQHandler) refers to systick.o(.bss) for sysTimer
    usart.o(i.USART2_IRQHandler) refers to usart.o(.data) for usart2_pos
    usart.o(i.USART2_IRQHandler) refers to usart.o(.bss) for usart2_rx_buf
    usart.o(i.USART2_RecProcess) refers to scancode.o(i.setScanCode) for setScanCode
    usart.o(i.USART2_RecProcess) refers to memseta.o(.text) for __aeabi_memclr
    usart.o(i.USART2_RecProcess) refers to systick.o(.bss) for sysTimer
    usart.o(i.USART2_RecProcess) refers to usart.o(.data) for usart2_pos
    usart.o(i.USART2_RecProcess) refers to usart.o(.bss) for usart2_rx_buf
    usart.o(i.USART3_IRQHandler) refers to stm32f10x_usart.o(i.USART_GetITStatus) for USART_GetITStatus
    usart.o(i.USART3_IRQHandler) refers to stm32f10x_usart.o(i.USART_ReceiveData) for USART_ReceiveData
    usart.o(i.USART3_IRQHandler) refers to stm32f10x_usart.o(i.USART_ClearITPendingBit) for USART_ClearITPendingBit
    usart.o(i.USART3_IRQHandler) refers to systick.o(.bss) for sysTimer
    usart.o(i.USART3_IRQHandler) refers to usart.o(.data) for usart3_pos
    usart.o(i.USART3_IRQHandler) refers to usart.o(.bss) for usart3_rx_buf
    usart.o(i.USART3_RecProcess) refers to openmv.o(i.DisposeReturnData) for DisposeReturnData
    usart.o(i.USART3_RecProcess) refers to memseta.o(.text) for __aeabi_memclr
    usart.o(i.USART3_RecProcess) refers to systick.o(.bss) for sysTimer
    usart.o(i.USART3_RecProcess) refers to usart.o(.data) for usart3_pos
    usart.o(i.USART3_RecProcess) refers to usart.o(.bss) for usart3_rx_buf
    usart.o(i.USART5_RecProcess) refers to memseta.o(.text) for __aeabi_memclr
    usart.o(i.USART5_RecProcess) refers to systick.o(.bss) for sysTimer
    usart.o(i.USART5_RecProcess) refers to usart.o(.data) for uart5_pos
    usart.o(i.USART5_RecProcess) refers to usart.o(.bss) for uart5_rx_buf
    usart.o(i.fputc) refers to stm32f10x_usart.o(i.USART_SendData) for USART_SendData
    usart.o(i.fputc) refers to stm32f10x_usart.o(i.USART_GetFlagStatus) for USART_GetFlagStatus
    usart.o(i.init_uart4) refers to stm32f10x_rcc.o(i.RCC_APB2PeriphClockCmd) for RCC_APB2PeriphClockCmd
    usart.o(i.init_uart4) refers to stm32f10x_rcc.o(i.RCC_APB1PeriphClockCmd) for RCC_APB1PeriphClockCmd
    usart.o(i.init_uart4) refers to stm32f10x_gpio.o(i.GPIO_Init) for GPIO_Init
    usart.o(i.init_uart4) refers to stm32f10x_usart.o(i.USART_Init) for USART_Init
    usart.o(i.init_uart4) refers to misc.o(i.NVIC_Init) for NVIC_Init
    usart.o(i.init_uart4) refers to stm32f10x_usart.o(i.USART_ITConfig) for USART_ITConfig
    usart.o(i.init_uart4) refers to stm32f10x_usart.o(i.USART_Cmd) for USART_Cmd
    usart.o(i.init_uart4) refers to stm32f10x_usart.o(i.USART_ClearFlag) for USART_ClearFlag
    usart.o(i.init_uart5) refers to stm32f10x_rcc.o(i.RCC_APB2PeriphClockCmd) for RCC_APB2PeriphClockCmd
    usart.o(i.init_uart5) refers to stm32f10x_rcc.o(i.RCC_APB1PeriphClockCmd) for RCC_APB1PeriphClockCmd
    usart.o(i.init_uart5) refers to stm32f10x_gpio.o(i.GPIO_Init) for GPIO_Init
    usart.o(i.init_uart5) refers to stm32f10x_usart.o(i.USART_Init) for USART_Init
    usart.o(i.init_uart5) refers to misc.o(i.NVIC_Init) for NVIC_Init
    usart.o(i.init_uart5) refers to stm32f10x_usart.o(i.USART_ITConfig) for USART_ITConfig
    usart.o(i.init_uart5) refers to stm32f10x_usart.o(i.USART_Cmd) for USART_Cmd
    usart.o(i.init_uart5) refers to stm32f10x_usart.o(i.USART_ClearFlag) for USART_ClearFlag
    usart.o(i.init_usart1) refers to stm32f10x_rcc.o(i.RCC_APB2PeriphClockCmd) for RCC_APB2PeriphClockCmd
    usart.o(i.init_usart1) refers to stm32f10x_gpio.o(i.GPIO_Init) for GPIO_Init
    usart.o(i.init_usart1) refers to stm32f10x_usart.o(i.USART_Init) for USART_Init
    usart.o(i.init_usart1) refers to misc.o(i.NVIC_Init) for NVIC_Init
    usart.o(i.init_usart1) refers to stm32f10x_usart.o(i.USART_ITConfig) for USART_ITConfig
    usart.o(i.init_usart1) refers to stm32f10x_usart.o(i.USART_Cmd) for USART_Cmd
    usart.o(i.init_usart1) refers to stm32f10x_usart.o(i.USART_ClearFlag) for USART_ClearFlag
    usart.o(i.init_usart2) refers to stm32f10x_rcc.o(i.RCC_APB2PeriphClockCmd) for RCC_APB2PeriphClockCmd
    usart.o(i.init_usart2) refers to stm32f10x_rcc.o(i.RCC_APB1PeriphClockCmd) for RCC_APB1PeriphClockCmd
    usart.o(i.init_usart2) refers to stm32f10x_gpio.o(i.GPIO_Init) for GPIO_Init
    usart.o(i.init_usart2) refers to stm32f10x_usart.o(i.USART_Init) for USART_Init
    usart.o(i.init_usart2) refers to misc.o(i.NVIC_Init) for NVIC_Init
    usart.o(i.init_usart2) refers to stm32f10x_usart.o(i.USART_ITConfig) for USART_ITConfig
    usart.o(i.init_usart2) refers to stm32f10x_usart.o(i.USART_Cmd) for USART_Cmd
    usart.o(i.init_usart2) refers to stm32f10x_usart.o(i.USART_ClearFlag) for USART_ClearFlag
    usart.o(i.init_usart3) refers to stm32f10x_rcc.o(i.RCC_APB2PeriphClockCmd) for RCC_APB2PeriphClockCmd
    usart.o(i.init_usart3) refers to stm32f10x_rcc.o(i.RCC_APB1PeriphClockCmd) for RCC_APB1PeriphClockCmd
    usart.o(i.init_usart3) refers to stm32f10x_gpio.o(i.GPIO_Init) for GPIO_Init
    usart.o(i.init_usart3) refers to stm32f10x_usart.o(i.USART_Init) for USART_Init
    usart.o(i.init_usart3) refers to misc.o(i.NVIC_Init) for NVIC_Init
    usart.o(i.init_usart3) refers to stm32f10x_usart.o(i.USART_ITConfig) for USART_ITConfig
    usart.o(i.init_usart3) refers to stm32f10x_usart.o(i.USART_Cmd) for USART_Cmd
    usart.o(i.init_usart3) refers to stm32f10x_usart.o(i.USART_ClearFlag) for USART_ClearFlag
    usart.o(i.usart_init_12345) refers to usart.o(i.init_usart1) for init_usart1
    usart.o(i.usart_init_12345) refers to usart.o(i.init_usart2) for init_usart2
    usart.o(i.usart_init_12345) refers to usart.o(i.init_usart3) for init_usart3
    usart.o(i.usart_init_12345) refers to usart.o(i.init_uart4) for init_uart4
    usart.o(i.usart_init_12345) refers to usart.o(i.init_uart5) for init_uart5
    usart.o(i.usart_send_byte) refers to stm32f10x_usart.o(i.USART_SendData) for USART_SendData
    usart.o(i.usart_send_byte) refers to stm32f10x_usart.o(i.USART_GetFlagStatus) for USART_GetFlagStatus
    usart.o(i.usart_send_string) refers to usart.o(i.usart_send_byte) for usart_send_byte
    timer.o(i.PWM_TIM3_Init) refers to stm32f10x_rcc.o(i.RCC_APB1PeriphClockCmd) for RCC_APB1PeriphClockCmd
    timer.o(i.PWM_TIM3_Init) refers to stm32f10x_rcc.o(i.RCC_APB2PeriphClockCmd) for RCC_APB2PeriphClockCmd
    timer.o(i.PWM_TIM3_Init) refers to stm32f10x_gpio.o(i.GPIO_Init) for GPIO_Init
    timer.o(i.PWM_TIM3_Init) refers to stm32f10x_tim.o(i.TIM_TimeBaseInit) for TIM_TimeBaseInit
    timer.o(i.PWM_TIM3_Init) refers to stm32f10x_tim.o(i.TIM_OC1Init) for TIM_OC1Init
    timer.o(i.PWM_TIM3_Init) refers to stm32f10x_tim.o(i.TIM_OC2Init) for TIM_OC2Init
    timer.o(i.PWM_TIM3_Init) refers to stm32f10x_tim.o(i.TIM_OC1PreloadConfig) for TIM_OC1PreloadConfig
    timer.o(i.PWM_TIM3_Init) refers to stm32f10x_tim.o(i.TIM_OC2PreloadConfig) for TIM_OC2PreloadConfig
    timer.o(i.PWM_TIM3_Init) refers to stm32f10x_tim.o(i.TIM_Cmd) for TIM_Cmd
    timer.o(i.SetTIM3PWMCompare) refers to stm32f10x_tim.o(i.TIM_SetCompare1) for TIM_SetCompare1
    timer.o(i.SetTIM3PWMCompare) refers to stm32f10x_tim.o(i.TIM_SetCompare2) for TIM_SetCompare2
    adc.o(i.Get_Adc1_Average) refers to adc.o(i.Get_adc1) for Get_adc1
    adc.o(i.Get_Adc1_Average) refers to systick.o(i.DelayMs) for DelayMs
    adc.o(i.Get_adc1) refers to stm32f10x_adc.o(i.ADC_RegularChannelConfig) for ADC_RegularChannelConfig
    adc.o(i.Get_adc1) refers to stm32f10x_adc.o(i.ADC_SoftwareStartConvCmd) for ADC_SoftwareStartConvCmd
    adc.o(i.Get_adc1) refers to stm32f10x_adc.o(i.ADC_GetFlagStatus) for ADC_GetFlagStatus
    adc.o(i.Get_adc1) refers to stm32f10x_adc.o(i.ADC_GetConversionValue) for ADC_GetConversionValue
    adc.o(i.adc1_init) refers to stm32f10x_rcc.o(i.RCC_APB2PeriphClockCmd) for RCC_APB2PeriphClockCmd
    adc.o(i.adc1_init) refers to stm32f10x_rcc.o(i.RCC_ADCCLKConfig) for RCC_ADCCLKConfig
    adc.o(i.adc1_init) refers to stm32f10x_gpio.o(i.GPIO_Init) for GPIO_Init
    adc.o(i.adc1_init) refers to stm32f10x_adc.o(i.ADC_DeInit) for ADC_DeInit
    adc.o(i.adc1_init) refers to stm32f10x_adc.o(i.ADC_Init) for ADC_Init
    adc.o(i.adc1_init) refers to stm32f10x_adc.o(i.ADC_Cmd) for ADC_Cmd
    adc.o(i.adc1_init) refers to stm32f10x_adc.o(i.ADC_ResetCalibration) for ADC_ResetCalibration
    adc.o(i.adc1_init) refers to stm32f10x_adc.o(i.ADC_GetResetCalibrationStatus) for ADC_GetResetCalibrationStatus
    adc.o(i.adc1_init) refers to stm32f10x_adc.o(i.ADC_StartCalibration) for ADC_StartCalibration
    adc.o(i.adc1_init) refers to stm32f10x_adc.o(i.ADC_GetCalibrationStatus) for ADC_GetCalibrationStatus
    goods.o(i.Add_Goods) refers to goods.o(.data) for Goodsnum
    goods.o(i.Goods_Init) refers to w25qxx.o(i.W25QXX_Read) for W25QXX_Read
    goods.o(i.Goods_Init) refers to goods.o(.data) for Goodsnum
    goods.o(i.Goods_Init) refers to goods.o(.bss) for goods
    goods.o(i.Save_Goods_falsh) refers to printfa.o(i.__0sprintf) for __2sprintf
    goods.o(i.Save_Goods_falsh) refers to goods.o(.bss) for goods
    goods.o(i.Save_Goods_falsh) refers to goods.o(.data) for Goodsnum
    user.o(i.Add_User) refers to user.o(.data) for UserNum
    user.o(i.Init_User) refers to w25qxx.o(i.W25QXX_Read) for W25QXX_Read
    user.o(i.Init_User) refers to user.o(.data) for UserNum
    user.o(i.Init_User) refers to user.o(.bss) for user
    user.o(i.Save_user_falsh) refers to printfa.o(i.__0sprintf) for __2sprintf
    user.o(i.Save_user_falsh) refers to user.o(.bss) for user
    user.o(i.Save_user_falsh) refers to user.o(.data) for UserNum
    openmv.o(i.DisposeReturnData) refers to uasrttft.o(i.setReturnOpenmv) for setReturnOpenmv
    openmv.o(i.Get_num) refers to usart.o(i.USART3_RecProcess) for USART3_RecProcess
    openmv.o(i.strart_face) refers to usart.o(i.usart_send_string) for usart_send_string
    spi.o(i.SPI2_Init) refers to stm32f10x_rcc.o(i.RCC_APB2PeriphClockCmd) for RCC_APB2PeriphClockCmd
    spi.o(i.SPI2_Init) refers to stm32f10x_rcc.o(i.RCC_APB1PeriphClockCmd) for RCC_APB1PeriphClockCmd
    spi.o(i.SPI2_Init) refers to stm32f10x_gpio.o(i.GPIO_Init) for GPIO_Init
    spi.o(i.SPI2_Init) refers to stm32f10x_gpio.o(i.GPIO_SetBits) for GPIO_SetBits
    spi.o(i.SPI2_Init) refers to stm32f10x_spi.o(i.SPI_Init) for SPI_Init
    spi.o(i.SPI2_Init) refers to stm32f10x_spi.o(i.SPI_Cmd) for SPI_Cmd
    spi.o(i.SPI2_Init) refers to spi.o(i.SPI2_ReadWriteByte) for SPI2_ReadWriteByte
    spi.o(i.SPI2_ReadWriteByte) refers to stm32f10x_spi.o(i.SPI_I2S_GetFlagStatus) for SPI_I2S_GetFlagStatus
    spi.o(i.SPI2_ReadWriteByte) refers to stm32f10x_spi.o(i.SPI_I2S_SendData) for SPI_I2S_SendData
    spi.o(i.SPI2_ReadWriteByte) refers to stm32f10x_spi.o(i.SPI_I2S_ReceiveData) for SPI_I2S_ReceiveData
    spi.o(i.SPI2_SetSpeed) refers to stm32f10x_spi.o(i.SPI_Cmd) for SPI_Cmd
    w25qxx.o(i.W25QXX_Erase_Chip) refers to w25qxx.o(i.W25QXX_Write_Enable) for W25QXX_Write_Enable
    w25qxx.o(i.W25QXX_Erase_Chip) refers to w25qxx.o(i.W25QXX_Wait_Busy) for W25QXX_Wait_Busy
    w25qxx.o(i.W25QXX_Erase_Chip) refers to spi.o(i.SPI2_ReadWriteByte) for SPI2_ReadWriteByte
    w25qxx.o(i.W25QXX_Erase_Sector) refers to w25qxx.o(i.W25QXX_Write_Enable) for W25QXX_Write_Enable
    w25qxx.o(i.W25QXX_Erase_Sector) refers to w25qxx.o(i.W25QXX_Wait_Busy) for W25QXX_Wait_Busy
    w25qxx.o(i.W25QXX_Erase_Sector) refers to spi.o(i.SPI2_ReadWriteByte) for SPI2_ReadWriteByte
    w25qxx.o(i.W25QXX_Init) refers to stm32f10x_rcc.o(i.RCC_APB2PeriphClockCmd) for RCC_APB2PeriphClockCmd
    w25qxx.o(i.W25QXX_Init) refers to stm32f10x_gpio.o(i.GPIO_Init) for GPIO_Init
    w25qxx.o(i.W25QXX_Init) refers to stm32f10x_gpio.o(i.GPIO_SetBits) for GPIO_SetBits
    w25qxx.o(i.W25QXX_Init) refers to spi.o(i.SPI2_Init) for SPI2_Init
    w25qxx.o(i.W25QXX_Init) refers to spi.o(i.SPI2_SetSpeed) for SPI2_SetSpeed
    w25qxx.o(i.W25QXX_Init) refers to w25qxx.o(i.W25QXX_ReadID) for W25QXX_ReadID
    w25qxx.o(i.W25QXX_Init) refers to w25qxx.o(.data) for W25QXX_TYPE
    w25qxx.o(i.W25QXX_PowerDown) refers to spi.o(i.SPI2_ReadWriteByte) for SPI2_ReadWriteByte
    w25qxx.o(i.W25QXX_PowerDown) refers to systick.o(i.DelayUs) for DelayUs
    w25qxx.o(i.W25QXX_Read) refers to spi.o(i.SPI2_ReadWriteByte) for SPI2_ReadWriteByte
    w25qxx.o(i.W25QXX_ReadID) refers to spi.o(i.SPI2_ReadWriteByte) for SPI2_ReadWriteByte
    w25qxx.o(i.W25QXX_ReadSR) refers to spi.o(i.SPI2_ReadWriteByte) for SPI2_ReadWriteByte
    w25qxx.o(i.W25QXX_WAKEUP) refers to spi.o(i.SPI2_ReadWriteByte) for SPI2_ReadWriteByte
    w25qxx.o(i.W25QXX_WAKEUP) refers to systick.o(i.DelayUs) for DelayUs
    w25qxx.o(i.W25QXX_Wait_Busy) refers to w25qxx.o(i.W25QXX_ReadSR) for W25QXX_ReadSR
    w25qxx.o(i.W25QXX_Write) refers to w25qxx.o(i.W25QXX_Read) for W25QXX_Read
    w25qxx.o(i.W25QXX_Write) refers to w25qxx.o(i.W25QXX_Erase_Sector) for W25QXX_Erase_Sector
    w25qxx.o(i.W25QXX_Write) refers to w25qxx.o(i.W25QXX_Write_NoCheck) for W25QXX_Write_NoCheck
    w25qxx.o(i.W25QXX_Write) refers to w25qxx.o(.bss) for W25QXX_BUFFER
    w25qxx.o(i.W25QXX_Write_Disable) refers to spi.o(i.SPI2_ReadWriteByte) for SPI2_ReadWriteByte
    w25qxx.o(i.W25QXX_Write_Enable) refers to spi.o(i.SPI2_ReadWriteByte) for SPI2_ReadWriteByte
    w25qxx.o(i.W25QXX_Write_NoCheck) refers to w25qxx.o(i.W25QXX_Write_Page) for W25QXX_Write_Page
    w25qxx.o(i.W25QXX_Write_Page) refers to w25qxx.o(i.W25QXX_Write_Enable) for W25QXX_Write_Enable
    w25qxx.o(i.W25QXX_Write_Page) refers to spi.o(i.SPI2_ReadWriteByte) for SPI2_ReadWriteByte
    w25qxx.o(i.W25QXX_Write_Page) refers to w25qxx.o(i.W25QXX_Wait_Busy) for W25QXX_Wait_Busy
    w25qxx.o(i.W25QXX_Write_SR) refers to spi.o(i.SPI2_ReadWriteByte) for SPI2_ReadWriteByte
    uasrttft.o(i.DisposeUsartTTFT) refers to strcmp.o(.text) for strcmp
    uasrttft.o(i.DisposeUsartTTFT) refers to openmv.o(i.strart_face) for strart_face
    uasrttft.o(i.DisposeUsartTTFT) refers to usart.o(i.USART3_RecProcess) for USART3_RecProcess
    uasrttft.o(i.DisposeUsartTTFT) refers to memseta.o(.text) for __aeabi_memclr
    uasrttft.o(i.DisposeUsartTTFT) refers to usart.o(i.USART1_RecProcess) for USART1_RecProcess
    uasrttft.o(i.DisposeUsartTTFT) refers to systick.o(i.DelayMs) for DelayMs
    uasrttft.o(i.DisposeUsartTTFT) refers to printfa.o(i.__0printf) for __2printf
    uasrttft.o(i.DisposeUsartTTFT) refers to scancode.o(i.setCodePage) for setCodePage
    uasrttft.o(i.DisposeUsartTTFT) refers to scancode.o(i.Startbill) for Startbill
    uasrttft.o(i.DisposeUsartTTFT) refers to uasrttft.o(.data) for is_return_openmv
    uasrttft.o(i.DisposeUsartTTFT) refers to usart.o(.data) for usart1_pos
    uasrttft.o(i.DisposeUsartTTFT) refers to uasrttft.o(.bss) for OpenmvReturnData
    uasrttft.o(i.send_indent) refers to printfa.o(i.__0printf) for __2printf
    uasrttft.o(i.send_indent) refers to f2d.o(.text) for __aeabi_f2d
    uasrttft.o(i.send_indent) refers to fmul.o(.text) for __aeabi_fmul
    uasrttft.o(i.setReturnOpenmv) refers to strcpy.o(.text) for strcpy
    uasrttft.o(i.setReturnOpenmv) refers to uasrttft.o(.bss) for OpenmvReturnData
    uasrttft.o(i.setReturnOpenmv) refers to uasrttft.o(.data) for is_return_openmv
    servo.o(i.Door_OFF) refers to servo.o(i.Servo_angle) for Servo_angle
    servo.o(i.Door_ON) refers to servo.o(i.Servo_angle) for Servo_angle
    servo.o(i.Servo_Init) refers to stm32f10x_rcc.o(i.RCC_APB1PeriphClockCmd) for RCC_APB1PeriphClockCmd
    servo.o(i.Servo_Init) refers to stm32f10x_rcc.o(i.RCC_APB2PeriphClockCmd) for RCC_APB2PeriphClockCmd
    servo.o(i.Servo_Init) refers to stm32f10x_gpio.o(i.GPIO_Init) for GPIO_Init
    servo.o(i.Servo_Init) refers to stm32f10x_tim.o(i.TIM_InternalClockConfig) for TIM_InternalClockConfig
    servo.o(i.Servo_Init) refers to stm32f10x_tim.o(i.TIM_TimeBaseInit) for TIM_TimeBaseInit
    servo.o(i.Servo_Init) refers to stm32f10x_tim.o(i.TIM_OCStructInit) for TIM_OCStructInit
    servo.o(i.Servo_Init) refers to stm32f10x_tim.o(i.TIM_OC2Init) for TIM_OC2Init
    servo.o(i.Servo_Init) refers to stm32f10x_tim.o(i.TIM_Cmd) for TIM_Cmd
    servo.o(i.Servo_angle) refers to fdiv.o(.text) for __aeabi_fdiv
    servo.o(i.Servo_angle) refers to fmul.o(.text) for __aeabi_fmul
    servo.o(i.Servo_angle) refers to fadd.o(.text) for __aeabi_fadd
    servo.o(i.Servo_angle) refers to ffixui.o(.text) for __aeabi_f2uiz
    servo.o(i.Servo_angle) refers to stm32f10x_tim.o(i.TIM_SetCompare2) for TIM_SetCompare2
    scancode.o(i.CalculateIndent) refers to scancode.o(i.is_CodeType) for is_CodeType
    scancode.o(i.CalculateIndent) refers to strcmp.o(.text) for strcmp
    scancode.o(i.CalculateIndent) refers to memcpya.o(.text) for __aeabi_memcpy4
    scancode.o(i.CalculateIndent) refers to scancode.o(i.UpdateIndent) for UpdateIndent
    scancode.o(i.CalculateIndent) refers to printfa.o(i.__0snprintf) for __2snprintf
    scancode.o(i.CalculateIndent) refers to strcat.o(.text) for strcat
    scancode.o(i.CalculateIndent) refers to f2d.o(.text) for __aeabi_f2d
    scancode.o(i.CalculateIndent) refers to usart.o(i.usart_send_string) for usart_send_string
    scancode.o(i.CalculateIndent) refers to printfa.o(i.__0printf) for __2printf
    scancode.o(i.CalculateIndent) refers to goods.o(.bss) for goods
    scancode.o(i.CalculateIndent) refers to scancode.o(.bss) for ScanCode
    scancode.o(i.CalculateIndent) refers to goods.o(.data) for Goodsnum
    scancode.o(i.CalculateIndent) refers to order.o(.data) for is_door
    scancode.o(i.CalculateIndent) refers to scancode.o(.data) for is_CodePage
    scancode.o(i.Startbill) refers to scancode.o(i.init_indent) for init_indent
    scancode.o(i.Startbill) refers to scancode.o(i.UpdateIndent) for UpdateIndent
    scancode.o(i.Startbill) refers to printfa.o(i.__0printf) for __2printf
    scancode.o(i.Startbill) refers to scancode.o(.bss) for indent
    scancode.o(i.UpdateIndent) refers to fflti.o(.text) for __aeabi_i2f
    scancode.o(i.UpdateIndent) refers to fmul.o(.text) for __aeabi_fmul
    scancode.o(i.UpdateIndent) refers to fadd.o(.text) for __aeabi_fadd
    scancode.o(i.UpdateIndent) refers to uasrttft.o(i.send_indent) for send_indent
    scancode.o(i.UpdateIndent) refers to scancode.o(.bss) for indent
    scancode.o(i.change_discount) refers to scancode.o(.bss) for indent
    scancode.o(i.getCodePage) refers to scancode.o(.data) for is_CodePage
    scancode.o(i.getScanCode) refers to scancode.o(.bss) for ScanCode
    scancode.o(i.init_indent) refers to scancode.o(.bss) for indent
    scancode.o(i.is_CodeType) refers to strlen.o(.text) for strlen
    scancode.o(i.is_CodeType) refers to scancode.o(.bss) for ScanCode
    scancode.o(i.setCodePage) refers to scancode.o(.data) for is_CodePage
    scancode.o(i.setScanCode) refers to strcpy.o(.text) for strcpy
    scancode.o(i.setScanCode) refers to scancode.o(i.CalculateIndent) for CalculateIndent
    scancode.o(i.setScanCode) refers to scancode.o(.bss) for ScanCode
    scancode.o(i.setScanCode) refers to scancode.o(.data) for is_CodePage
    order.o(i.receive_order) refers to cjson.o(i.cJSON_Parse) for cJSON_Parse
    order.o(i.receive_order) refers to cjson.o(i.cJSON_GetObjectItem) for cJSON_GetObjectItem
    order.o(i.receive_order) refers to d2f.o(.text) for __aeabi_d2f
    order.o(i.receive_order) refers to scancode.o(i.change_discount) for change_discount
    order.o(i.receive_order) refers to servo.o(i.Door_ON) for Door_ON
    order.o(i.receive_order) refers to servo.o(i.Door_OFF) for Door_OFF
    order.o(i.receive_order) refers to strcpy.o(.text) for strcpy
    order.o(i.receive_order) refers to goods.o(i.Save_Goods_falsh) for Save_Goods_falsh
    order.o(i.receive_order) refers to cjson.o(i.cJSON_Delete) for cJSON_Delete
    order.o(i.receive_order) refers to order.o(.data) for is_EIC
    order.o(i.receive_order) refers to goods.o(.bss) for goods
    order.o(i.receive_order) refers to goods.o(.data) for Goodsnum
    order.o(i.update_code) refers to cjson.o(i.cJSON_CreateObject) for cJSON_CreateObject
    order.o(i.update_code) refers to dfltui.o(.text) for __aeabi_ui2d
    order.o(i.update_code) refers to cjson.o(i.cJSON_AddNumberToObject) for cJSON_AddNumberToObject
    order.o(i.update_code) refers to cjson.o(i.cJSON_Print) for cJSON_Print
    order.o(i.update_code) refers to usart.o(i.usart_send_string) for usart_send_string
    order.o(i.update_code) refers to cjson.o(i.cJSON_free) for cJSON_free
    order.o(i.update_code) refers to cjson.o(i.cJSON_Delete) for cJSON_Delete
    order.o(i.update_code) refers to order.o(.data) for is_EIC
    main.o(i.RunAllTask) refers to usart.o(i.USART1_RecProcess) for USART1_RecProcess
    main.o(i.RunAllTask) refers to usart.o(i.USART2_RecProcess) for USART2_RecProcess
    main.o(i.RunAllTask) refers to usart.o(i.USART3_RecProcess) for USART3_RecProcess
    main.o(i.RunAllTask) refers to usart.o(i.UART4_RecProcess) for UART4_RecProcess
    main.o(i.RunAllTask) refers to task.o(i.Task1) for Task1
    main.o(i.RunAllTask) refers to task.o(i.Task2) for Task2
    main.o(i.init_all) refers to system.o(i.SysInit) for SysInit
    main.o(i.init_all) refers to usart.o(i.init_usart1) for init_usart1
    main.o(i.init_all) refers to usart.o(i.init_usart2) for init_usart2
    main.o(i.init_all) refers to usart.o(i.init_usart3) for init_usart3
    main.o(i.init_all) refers to usart.o(i.init_uart4) for init_uart4
    main.o(i.init_all) refers to goods.o(i.Save_Goods_falsh) for Save_Goods_falsh
    main.o(i.init_all) refers to user.o(i.Save_user_falsh) for Save_user_falsh
    main.o(i.init_all) refers to servo.o(i.Servo_Init) for Servo_Init
    main.o(i.main) refers to main.o(i.init_all) for init_all
    main.o(i.main) refers to servo.o(i.Door_ON) for Door_ON
    main.o(i.main) refers to main.o(i.RunAllTask) for RunAllTask
    led.o(i.InitLed) refers to stm32f10x_rcc.o(i.RCC_APB2PeriphClockCmd) for RCC_APB2PeriphClockCmd
    led.o(i.InitLed) refers to stm32f10x_gpio.o(i.GPIO_Init) for GPIO_Init
    led.o(i.SetLedState) refers to cdh_fun_stm32.o(i.GPIO_Set_Bit) for GPIO_Set_Bit
    strtod.o(i.__softfp_strtod) refers (Special) to iusefp.o(.text) for __I$use$fp
    strtod.o(i.__softfp_strtod) refers to strtod.o(.text) for __strtod_int
    strtod.o(i.strtod) refers (Special) to iusefp.o(.text) for __I$use$fp
    strtod.o(i.strtod) refers to strtod.o(.text) for __strtod_int
    strtof.o(i.__softfp_strtof) refers (Special) to iusefp.o(.text) for __I$use$fp
    strtof.o(i.__softfp_strtof) refers to strtod.o(.text) for __strtod_int
    strtof.o(i.__softfp_strtof) refers to d2f.o(.text) for __aeabi_d2f
    strtof.o(i.strtof) refers (Special) to iusefp.o(.text) for __I$use$fp
    strtof.o(i.strtof) refers to strtod.o(.text) for __strtod_int
    strtof.o(i.strtof) refers to d2f.o(.text) for __aeabi_d2f
    entry.o(.ARM.Collect$$$$00000000) refers (Special) to entry10a.o(.ARM.Collect$$$$0000000D) for __rt_final_cpp
    entry.o(.ARM.Collect$$$$00000000) refers (Special) to entry11a.o(.ARM.Collect$$$$0000000F) for __rt_final_exit
    entry.o(.ARM.Collect$$$$00000000) refers (Special) to entry7b.o(.ARM.Collect$$$$00000008) for _main_clock
    entry.o(.ARM.Collect$$$$00000000) refers (Special) to entry8b.o(.ARM.Collect$$$$0000000A) for _main_cpp_init
    entry.o(.ARM.Collect$$$$00000000) refers (Special) to entry9a.o(.ARM.Collect$$$$0000000B) for _main_init
    entry.o(.ARM.Collect$$$$00000000) refers (Special) to entry5.o(.ARM.Collect$$$$00000004) for _main_scatterload
    entry.o(.ARM.Collect$$$$00000000) refers (Special) to entry2.o(.ARM.Collect$$$$00000001) for _main_stk
    printfb.o(i.__0fprintf$bare) refers to printfb.o(i._printf_core) for _printf_core
    printfb.o(i.__0fprintf$bare) refers to usart.o(i.fputc) for fputc
    printfb.o(i.__0printf$bare) refers to printfb.o(i._printf_core) for _printf_core
    printfb.o(i.__0printf$bare) refers to usart.o(i.fputc) for fputc
    printfb.o(i.__0printf$bare) refers to stdout.o(.data) for __stdout
    printfb.o(i.__0snprintf$bare) refers to printfb.o(i._printf_core) for _printf_core
    printfb.o(i.__0snprintf$bare) refers to printfb.o(i._snputc) for _snputc
    printfb.o(i.__0sprintf$bare) refers to printfb.o(i._printf_core) for _printf_core
    printfb.o(i.__0sprintf$bare) refers to printfb.o(i._sputc) for _sputc
    printfb.o(i.__0vfprintf$bare) refers to printfb.o(i._printf_core) for _printf_core
    printfb.o(i.__0vfprintf$bare) refers to usart.o(i.fputc) for fputc
    printfb.o(i.__0vprintf$bare) refers to printfb.o(i._printf_core) for _printf_core
    printfb.o(i.__0vprintf$bare) refers to usart.o(i.fputc) for fputc
    printfb.o(i.__0vprintf$bare) refers to stdout.o(.data) for __stdout
    printfb.o(i.__0vsnprintf$bare) refers to printfb.o(i._printf_core) for _printf_core
    printfb.o(i.__0vsnprintf$bare) refers to printfb.o(i._snputc) for _snputc
    printfb.o(i.__0vsprintf$bare) refers to printfb.o(i._printf_core) for _printf_core
    printfb.o(i.__0vsprintf$bare) refers to printfb.o(i._sputc) for _sputc
    printf0.o(i.__0fprintf$0) refers to printf0.o(i._printf_core) for _printf_core
    printf0.o(i.__0fprintf$0) refers to usart.o(i.fputc) for fputc
    printf0.o(i.__0printf$0) refers to printf0.o(i._printf_core) for _printf_core
    printf0.o(i.__0printf$0) refers to usart.o(i.fputc) for fputc
    printf0.o(i.__0printf$0) refers to stdout.o(.data) for __stdout
    printf0.o(i.__0snprintf$0) refers to printf0.o(i._printf_core) for _printf_core
    printf0.o(i.__0snprintf$0) refers to printf0.o(i._snputc) for _snputc
    printf0.o(i.__0sprintf$0) refers to printf0.o(i._printf_core) for _printf_core
    printf0.o(i.__0sprintf$0) refers to printf0.o(i._sputc) for _sputc
    printf0.o(i.__0vfprintf$0) refers to printf0.o(i._printf_core) for _printf_core
    printf0.o(i.__0vfprintf$0) refers to usart.o(i.fputc) for fputc
    printf0.o(i.__0vprintf$0) refers to printf0.o(i._printf_core) for _printf_core
    printf0.o(i.__0vprintf$0) refers to usart.o(i.fputc) for fputc
    printf0.o(i.__0vprintf$0) refers to stdout.o(.data) for __stdout
    printf0.o(i.__0vsnprintf$0) refers to printf0.o(i._printf_core) for _printf_core
    printf0.o(i.__0vsnprintf$0) refers to printf0.o(i._snputc) for _snputc
    printf0.o(i.__0vsprintf$0) refers to printf0.o(i._printf_core) for _printf_core
    printf0.o(i.__0vsprintf$0) refers to printf0.o(i._sputc) for _sputc
    printf1.o(i.__0fprintf$1) refers to printf1.o(i._printf_core) for _printf_core
    printf1.o(i.__0fprintf$1) refers to usart.o(i.fputc) for fputc
    printf1.o(i.__0printf$1) refers to printf1.o(i._printf_core) for _printf_core
    printf1.o(i.__0printf$1) refers to usart.o(i.fputc) for fputc
    printf1.o(i.__0printf$1) refers to stdout.o(.data) for __stdout
    printf1.o(i.__0snprintf$1) refers to printf1.o(i._printf_core) for _printf_core
    printf1.o(i.__0snprintf$1) refers to printf1.o(i._snputc) for _snputc
    printf1.o(i.__0sprintf$1) refers to printf1.o(i._printf_core) for _printf_core
    printf1.o(i.__0sprintf$1) refers to printf1.o(i._sputc) for _sputc
    printf1.o(i.__0vfprintf$1) refers to printf1.o(i._printf_core) for _printf_core
    printf1.o(i.__0vfprintf$1) refers to usart.o(i.fputc) for fputc
    printf1.o(i.__0vprintf$1) refers to printf1.o(i._printf_core) for _printf_core
    printf1.o(i.__0vprintf$1) refers to usart.o(i.fputc) for fputc
    printf1.o(i.__0vprintf$1) refers to stdout.o(.data) for __stdout
    printf1.o(i.__0vsnprintf$1) refers to printf1.o(i._printf_core) for _printf_core
    printf1.o(i.__0vsnprintf$1) refers to printf1.o(i._snputc) for _snputc
    printf1.o(i.__0vsprintf$1) refers to printf1.o(i._printf_core) for _printf_core
    printf1.o(i.__0vsprintf$1) refers to printf1.o(i._sputc) for _sputc
    printf1.o(i._printf_core) refers to uidiv.o(.text) for __aeabi_uidivmod
    printf2.o(i.__0fprintf$2) refers to printf2.o(i._printf_core) for _printf_core
    printf2.o(i.__0fprintf$2) refers to usart.o(i.fputc) for fputc
    printf2.o(i.__0printf$2) refers to printf2.o(i._printf_core) for _printf_core
    printf2.o(i.__0printf$2) refers to usart.o(i.fputc) for fputc
    printf2.o(i.__0printf$2) refers to stdout.o(.data) for __stdout
    printf2.o(i.__0snprintf$2) refers to printf2.o(i._printf_core) for _printf_core
    printf2.o(i.__0snprintf$2) refers to printf2.o(i._snputc) for _snputc
    printf2.o(i.__0sprintf$2) refers to printf2.o(i._printf_core) for _printf_core
    printf2.o(i.__0sprintf$2) refers to printf2.o(i._sputc) for _sputc
    printf2.o(i.__0vfprintf$2) refers to printf2.o(i._printf_core) for _printf_core
    printf2.o(i.__0vfprintf$2) refers to usart.o(i.fputc) for fputc
    printf2.o(i.__0vprintf$2) refers to printf2.o(i._printf_core) for _printf_core
    printf2.o(i.__0vprintf$2) refers to usart.o(i.fputc) for fputc
    printf2.o(i.__0vprintf$2) refers to stdout.o(.data) for __stdout
    printf2.o(i.__0vsnprintf$2) refers to printf2.o(i._printf_core) for _printf_core
    printf2.o(i.__0vsnprintf$2) refers to printf2.o(i._snputc) for _snputc
    printf2.o(i.__0vsprintf$2) refers to printf2.o(i._printf_core) for _printf_core
    printf2.o(i.__0vsprintf$2) refers to printf2.o(i._sputc) for _sputc
    printf3.o(i.__0fprintf$3) refers to printf3.o(i._printf_core) for _printf_core
    printf3.o(i.__0fprintf$3) refers to usart.o(i.fputc) for fputc
    printf3.o(i.__0printf$3) refers to printf3.o(i._printf_core) for _printf_core
    printf3.o(i.__0printf$3) refers to usart.o(i.fputc) for fputc
    printf3.o(i.__0printf$3) refers to stdout.o(.data) for __stdout
    printf3.o(i.__0snprintf$3) refers to printf3.o(i._printf_core) for _printf_core
    printf3.o(i.__0snprintf$3) refers to printf3.o(i._snputc) for _snputc
    printf3.o(i.__0sprintf$3) refers to printf3.o(i._printf_core) for _printf_core
    printf3.o(i.__0sprintf$3) refers to printf3.o(i._sputc) for _sputc
    printf3.o(i.__0vfprintf$3) refers to printf3.o(i._printf_core) for _printf_core
    printf3.o(i.__0vfprintf$3) refers to usart.o(i.fputc) for fputc
    printf3.o(i.__0vprintf$3) refers to printf3.o(i._printf_core) for _printf_core
    printf3.o(i.__0vprintf$3) refers to usart.o(i.fputc) for fputc
    printf3.o(i.__0vprintf$3) refers to stdout.o(.data) for __stdout
    printf3.o(i.__0vsnprintf$3) refers to printf3.o(i._printf_core) for _printf_core
    printf3.o(i.__0vsnprintf$3) refers to printf3.o(i._snputc) for _snputc
    printf3.o(i.__0vsprintf$3) refers to printf3.o(i._printf_core) for _printf_core
    printf3.o(i.__0vsprintf$3) refers to printf3.o(i._sputc) for _sputc
    printf3.o(i._printf_core) refers to uidiv.o(.text) for __aeabi_uidivmod
    printf4.o(i.__0fprintf$4) refers to printf4.o(i._printf_core) for _printf_core
    printf4.o(i.__0fprintf$4) refers to usart.o(i.fputc) for fputc
    printf4.o(i.__0printf$4) refers to printf4.o(i._printf_core) for _printf_core
    printf4.o(i.__0printf$4) refers to usart.o(i.fputc) for fputc
    printf4.o(i.__0printf$4) refers to stdout.o(.data) for __stdout
    printf4.o(i.__0snprintf$4) refers to printf4.o(i._printf_core) for _printf_core
    printf4.o(i.__0snprintf$4) refers to printf4.o(i._snputc) for _snputc
    printf4.o(i.__0sprintf$4) refers to printf4.o(i._printf_core) for _printf_core
    printf4.o(i.__0sprintf$4) refers to printf4.o(i._sputc) for _sputc
    printf4.o(i.__0vfprintf$4) refers to printf4.o(i._printf_core) for _printf_core
    printf4.o(i.__0vfprintf$4) refers to usart.o(i.fputc) for fputc
    printf4.o(i.__0vprintf$4) refers to printf4.o(i._printf_core) for _printf_core
    printf4.o(i.__0vprintf$4) refers to usart.o(i.fputc) for fputc
    printf4.o(i.__0vprintf$4) refers to stdout.o(.data) for __stdout
    printf4.o(i.__0vsnprintf$4) refers to printf4.o(i._printf_core) for _printf_core
    printf4.o(i.__0vsnprintf$4) refers to printf4.o(i._snputc) for _snputc
    printf4.o(i.__0vsprintf$4) refers to printf4.o(i._printf_core) for _printf_core
    printf4.o(i.__0vsprintf$4) refers to printf4.o(i._sputc) for _sputc
    printf4.o(i._printf_core) refers to uldiv.o(.text) for __aeabi_uldivmod
    printf5.o(i.__0fprintf$5) refers to printf5.o(i._printf_core) for _printf_core
    printf5.o(i.__0fprintf$5) refers to usart.o(i.fputc) for fputc
    printf5.o(i.__0printf$5) refers to printf5.o(i._printf_core) for _printf_core
    printf5.o(i.__0printf$5) refers to usart.o(i.fputc) for fputc
    printf5.o(i.__0printf$5) refers to stdout.o(.data) for __stdout
    printf5.o(i.__0snprintf$5) refers to printf5.o(i._printf_core) for _printf_core
    printf5.o(i.__0snprintf$5) refers to printf5.o(i._snputc) for _snputc
    printf5.o(i.__0sprintf$5) refers to printf5.o(i._printf_core) for _printf_core
    printf5.o(i.__0sprintf$5) refers to printf5.o(i._sputc) for _sputc
    printf5.o(i.__0vfprintf$5) refers to printf5.o(i._printf_core) for _printf_core
    printf5.o(i.__0vfprintf$5) refers to usart.o(i.fputc) for fputc
    printf5.o(i.__0vprintf$5) refers to printf5.o(i._printf_core) for _printf_core
    printf5.o(i.__0vprintf$5) refers to usart.o(i.fputc) for fputc
    printf5.o(i.__0vprintf$5) refers to stdout.o(.data) for __stdout
    printf5.o(i.__0vsnprintf$5) refers to printf5.o(i._printf_core) for _printf_core
    printf5.o(i.__0vsnprintf$5) refers to printf5.o(i._snputc) for _snputc
    printf5.o(i.__0vsprintf$5) refers to printf5.o(i._printf_core) for _printf_core
    printf5.o(i.__0vsprintf$5) refers to printf5.o(i._sputc) for _sputc
    printf5.o(i._printf_core) refers to uldiv.o(.text) for __aeabi_uldivmod
    printf6.o(i.__0fprintf$6) refers to printf6.o(i._printf_core) for _printf_core
    printf6.o(i.__0fprintf$6) refers to usart.o(i.fputc) for fputc
    printf6.o(i.__0printf$6) refers to printf6.o(i._printf_core) for _printf_core
    printf6.o(i.__0printf$6) refers to usart.o(i.fputc) for fputc
    printf6.o(i.__0printf$6) refers to stdout.o(.data) for __stdout
    printf6.o(i.__0snprintf$6) refers to printf6.o(i._printf_core) for _printf_core
    printf6.o(i.__0snprintf$6) refers to printf6.o(i._snputc) for _snputc
    printf6.o(i.__0sprintf$6) refers to printf6.o(i._printf_core) for _printf_core
    printf6.o(i.__0sprintf$6) refers to printf6.o(i._sputc) for _sputc
    printf6.o(i.__0vfprintf$6) refers to printf6.o(i._printf_core) for _printf_core
    printf6.o(i.__0vfprintf$6) refers to usart.o(i.fputc) for fputc
    printf6.o(i.__0vprintf$6) refers to printf6.o(i._printf_core) for _printf_core
    printf6.o(i.__0vprintf$6) refers to usart.o(i.fputc) for fputc
    printf6.o(i.__0vprintf$6) refers to stdout.o(.data) for __stdout
    printf6.o(i.__0vsnprintf$6) refers to printf6.o(i._printf_core) for _printf_core
    printf6.o(i.__0vsnprintf$6) refers to printf6.o(i._snputc) for _snputc
    printf6.o(i.__0vsprintf$6) refers to printf6.o(i._printf_core) for _printf_core
    printf6.o(i.__0vsprintf$6) refers to printf6.o(i._sputc) for _sputc
    printf6.o(i._printf_core) refers to printf6.o(i._printf_pre_padding) for _printf_pre_padding
    printf6.o(i._printf_core) refers to uidiv.o(.text) for __aeabi_uidivmod
    printf6.o(i._printf_core) refers to printf6.o(i._printf_post_padding) for _printf_post_padding
    printf7.o(i.__0fprintf$7) refers to printf7.o(i._printf_core) for _printf_core
    printf7.o(i.__0fprintf$7) refers to usart.o(i.fputc) for fputc
    printf7.o(i.__0printf$7) refers to printf7.o(i._printf_core) for _printf_core
    printf7.o(i.__0printf$7) refers to usart.o(i.fputc) for fputc
    printf7.o(i.__0printf$7) refers to stdout.o(.data) for __stdout
    printf7.o(i.__0snprintf$7) refers to printf7.o(i._printf_core) for _printf_core
    printf7.o(i.__0snprintf$7) refers to printf7.o(i._snputc) for _snputc
    printf7.o(i.__0sprintf$7) refers to printf7.o(i._printf_core) for _printf_core
    printf7.o(i.__0sprintf$7) refers to printf7.o(i._sputc) for _sputc
    printf7.o(i.__0vfprintf$7) refers to printf7.o(i._printf_core) for _printf_core
    printf7.o(i.__0vfprintf$7) refers to usart.o(i.fputc) for fputc
    printf7.o(i.__0vprintf$7) refers to printf7.o(i._printf_core) for _printf_core
    printf7.o(i.__0vprintf$7) refers to usart.o(i.fputc) for fputc
    printf7.o(i.__0vprintf$7) refers to stdout.o(.data) for __stdout
    printf7.o(i.__0vsnprintf$7) refers to printf7.o(i._printf_core) for _printf_core
    printf7.o(i.__0vsnprintf$7) refers to printf7.o(i._snputc) for _snputc
    printf7.o(i.__0vsprintf$7) refers to printf7.o(i._printf_core) for _printf_core
    printf7.o(i.__0vsprintf$7) refers to printf7.o(i._sputc) for _sputc
    printf7.o(i._printf_core) refers to printf7.o(i._printf_pre_padding) for _printf_pre_padding
    printf7.o(i._printf_core) refers to uldiv.o(.text) for __aeabi_uldivmod
    printf7.o(i._printf_core) refers to printf7.o(i._printf_post_padding) for _printf_post_padding
    printf8.o(i.__0fprintf$8) refers to printf8.o(i._printf_core) for _printf_core
    printf8.o(i.__0fprintf$8) refers to usart.o(i.fputc) for fputc
    printf8.o(i.__0printf$8) refers to printf8.o(i._printf_core) for _printf_core
    printf8.o(i.__0printf$8) refers to usart.o(i.fputc) for fputc
    printf8.o(i.__0printf$8) refers to stdout.o(.data) for __stdout
    printf8.o(i.__0snprintf$8) refers to printf8.o(i._printf_core) for _printf_core
    printf8.o(i.__0snprintf$8) refers to printf8.o(i._snputc) for _snputc
    printf8.o(i.__0sprintf$8) refers to printf8.o(i._printf_core) for _printf_core
    printf8.o(i.__0sprintf$8) refers to printf8.o(i._sputc) for _sputc
    printf8.o(i.__0vfprintf$8) refers to printf8.o(i._printf_core) for _printf_core
    printf8.o(i.__0vfprintf$8) refers to usart.o(i.fputc) for fputc
    printf8.o(i.__0vprintf$8) refers to printf8.o(i._printf_core) for _printf_core
    printf8.o(i.__0vprintf$8) refers to usart.o(i.fputc) for fputc
    printf8.o(i.__0vprintf$8) refers to stdout.o(.data) for __stdout
    printf8.o(i.__0vsnprintf$8) refers to printf8.o(i._printf_core) for _printf_core
    printf8.o(i.__0vsnprintf$8) refers to printf8.o(i._snputc) for _snputc
    printf8.o(i.__0vsprintf$8) refers to printf8.o(i._printf_core) for _printf_core
    printf8.o(i.__0vsprintf$8) refers to printf8.o(i._sputc) for _sputc
    printf8.o(i._printf_core) refers to printf8.o(i._printf_pre_padding) for _printf_pre_padding
    printf8.o(i._printf_core) refers to uldiv.o(.text) for __aeabi_uldivmod
    printf8.o(i._printf_core) refers to printf8.o(i._printf_post_padding) for _printf_post_padding
    printfa.o(i.__0fprintf) refers (Special) to iusefp.o(.text) for __I$use$fp
    printfa.o(i.__0fprintf) refers to printfa.o(i._printf_core) for _printf_core
    printfa.o(i.__0fprintf) refers to usart.o(i.fputc) for fputc
    printfa.o(i.__0printf) refers (Special) to iusefp.o(.text) for __I$use$fp
    printfa.o(i.__0printf) refers to printfa.o(i._printf_core) for _printf_core
    printfa.o(i.__0printf) refers to usart.o(i.fputc) for fputc
    printfa.o(i.__0printf) refers to stdout.o(.data) for __stdout
    printfa.o(i.__0snprintf) refers (Special) to iusefp.o(.text) for __I$use$fp
    printfa.o(i.__0snprintf) refers to printfa.o(i._printf_core) for _printf_core
    printfa.o(i.__0snprintf) refers to printfa.o(i._snputc) for _snputc
    printfa.o(i.__0sprintf) refers (Special) to iusefp.o(.text) for __I$use$fp
    printfa.o(i.__0sprintf) refers to printfa.o(i._printf_core) for _printf_core
    printfa.o(i.__0sprintf) refers to printfa.o(i._sputc) for _sputc
    printfa.o(i.__0vfprintf) refers (Special) to iusefp.o(.text) for __I$use$fp
    printfa.o(i.__0vfprintf) refers to printfa.o(i._printf_core) for _printf_core
    printfa.o(i.__0vfprintf) refers to usart.o(i.fputc) for fputc
    printfa.o(i.__0vprintf) refers (Special) to iusefp.o(.text) for __I$use$fp
    printfa.o(i.__0vprintf) refers to printfa.o(i._printf_core) for _printf_core
    printfa.o(i.__0vprintf) refers to usart.o(i.fputc) for fputc
    printfa.o(i.__0vprintf) refers to stdout.o(.data) for __stdout
    printfa.o(i.__0vsnprintf) refers (Special) to iusefp.o(.text) for __I$use$fp
    printfa.o(i.__0vsnprintf) refers to printfa.o(i._printf_core) for _printf_core
    printfa.o(i.__0vsnprintf) refers to printfa.o(i._snputc) for _snputc
    printfa.o(i.__0vsprintf) refers (Special) to iusefp.o(.text) for __I$use$fp
    printfa.o(i.__0vsprintf) refers to printfa.o(i._printf_core) for _printf_core
    printfa.o(i.__0vsprintf) refers to printfa.o(i._sputc) for _sputc
    printfa.o(i._fp_digits) refers (Special) to iusefp.o(.text) for __I$use$fp
    printfa.o(i._fp_digits) refers to dmul.o(.text) for __aeabi_dmul
    printfa.o(i._fp_digits) refers to ddiv.o(.text) for __aeabi_ddiv
    printfa.o(i._fp_digits) refers to cdrcmple.o(.text) for __aeabi_cdrcmple
    printfa.o(i._fp_digits) refers to dadd.o(.text) for __aeabi_dadd
    printfa.o(i._fp_digits) refers to dfixul.o(.text) for __aeabi_d2ulz
    printfa.o(i._fp_digits) refers to uldiv.o(.text) for __aeabi_uldivmod
    printfa.o(i._printf_core) refers (Special) to iusefp.o(.text) for __I$use$fp
    printfa.o(i._printf_core) refers to printfa.o(i._printf_pre_padding) for _printf_pre_padding
    printfa.o(i._printf_core) refers to uldiv.o(.text) for __aeabi_uldivmod
    printfa.o(i._printf_core) refers to printfa.o(i._printf_post_padding) for _printf_post_padding
    printfa.o(i._printf_core) refers to printfa.o(i._fp_digits) for _fp_digits
    printfa.o(i._printf_core) refers to uidiv.o(.text) for __aeabi_uidivmod
    printfa.o(i._printf_post_padding) refers (Special) to iusefp.o(.text) for __I$use$fp
    printfa.o(i._printf_pre_padding) refers (Special) to iusefp.o(.text) for __I$use$fp
    printfa.o(i._snputc) refers (Special) to iusefp.o(.text) for __I$use$fp
    printfa.o(i._sputc) refers (Special) to iusefp.o(.text) for __I$use$fp
    malloc.o(i.free) refers to mvars.o(.data) for __microlib_freelist
    malloc.o(i.malloc) refers to mvars.o(.data) for __microlib_freelist_initialised
    malloc.o(i.malloc) refers to mvars.o(.data) for __microlib_freelist
    malloc.o(i.malloc) refers to startup_stm32f10x_hd.o(HEAP) for __heap_base
    mallocr.o(i.__free$realloc) refers to mvars.o(.data) for __microlib_freelist
    mallocr.o(i.__malloc$realloc) refers to mallocr.o(i.internal_alloc) for internal_alloc
    mallocr.o(i.__malloc$realloc) refers to mvars.o(.data) for __microlib_freelist_initialised
    mallocr.o(i.__malloc$realloc) refers to startup_stm32f10x_hd.o(HEAP) for __heap_base
    mallocr.o(i.__malloc$realloc) refers to mvars.o(.data) for __microlib_freelist
    mallocr.o(i.internal_alloc) refers to memcpya.o(.text) for __aeabi_memcpy
    mallocr.o(i.internal_alloc) refers to mvars.o(.data) for __microlib_freelist
    mallocr.o(i.realloc) refers to mallocr.o(i.__free$realloc) for free
    mallocr.o(i.realloc) refers to mallocr.o(i.internal_alloc) for internal_alloc
    mallocr.o(i.realloc) refers to mallocr.o(i.__malloc$realloc) for malloc
    mallocr.o(i.realloc) refers to mvars.o(.data) for __microlib_freelist
    malloca.o(i.__aligned_malloc) refers to mvars.o(.data) for __microlib_freelist_initialised
    malloca.o(i.__aligned_malloc) refers to mvars.o(.data) for __microlib_freelist
    malloca.o(i.__aligned_malloc) refers to startup_stm32f10x_hd.o(HEAP) for __heap_base
    malloca.o(i.__free$memalign) refers to mvars.o(.data) for __microlib_freelist
    malloca.o(i.__malloc$memalign) refers to malloca.o(i.__aligned_malloc) for __aligned_malloc
    mallocra.o(i.__aligned_malloc$realloc) refers to mallocra.o(i.internal_alloc) for internal_alloc
    mallocra.o(i.__aligned_malloc$realloc) refers to mvars.o(.data) for __microlib_freelist_initialised
    mallocra.o(i.__aligned_malloc$realloc) refers to startup_stm32f10x_hd.o(HEAP) for __heap_base
    mallocra.o(i.__aligned_malloc$realloc) refers to mvars.o(.data) for __microlib_freelist
    mallocra.o(i.__free$realloc$memalign) refers to mvars.o(.data) for __microlib_freelist
    mallocra.o(i.__malloc$realloc$memalign) refers to mallocra.o(i.__aligned_malloc$realloc) for __aligned_malloc$realloc
    mallocra.o(i.__realloc$memalign) refers to mallocra.o(i.__free$realloc$memalign) for __free$realloc$memalign
    mallocra.o(i.__realloc$memalign) refers to mallocra.o(i.internal_alloc) for internal_alloc
    mallocra.o(i.__realloc$memalign) refers to mallocra.o(i.__malloc$realloc$memalign) for __malloc$realloc$memalign
    mallocra.o(i.__realloc$memalign) refers to mvars.o(.data) for __microlib_freelist
    mallocra.o(i.internal_alloc) refers to memcpya.o(.text) for __aeabi_memcpy
    mallocra.o(i.internal_alloc) refers to mvars.o(.data) for __microlib_freelist
    __0sscanf.o(.text) refers to scanf_char.o(.text) for __vfscanf_char
    __0sscanf.o(.text) refers to _sgetc.o(.text) for _sgetc
    scanf_fp.o(.text) refers (Special) to iusefp.o(.text) for __I$use$fp
    scanf_fp.o(.text) refers to dfltul.o(.text) for __aeabi_ul2d
    scanf_fp.o(.text) refers to dmul.o(.text) for __aeabi_dmul
    scanf_fp.o(.text) refers to ddiv.o(.text) for __aeabi_ddiv
    scanf_fp.o(.text) refers to scanf_fp.o(i._is_digit) for _is_digit
    scanf_fp.o(.text) refers to d2f.o(.text) for __aeabi_d2f
    strtol.o(.text) refers to ctype_o.o(.text) for __rt_ctype_table
    strtol.o(.text) refers to _strtoul.o(.text) for _strtoul
    strtol.o(.text) refers to errno.o(i.__aeabi_errno_addr) for __aeabi_errno_addr
    fadd.o(.text) refers (Special) to iusefp.o(.text) for __I$use$fp
    fadd.o(.text) refers to fepilogue.o(.text) for _float_epilogue
    fmul.o(.text) refers (Special) to iusefp.o(.text) for __I$use$fp
    fdiv.o(.text) refers (Special) to iusefp.o(.text) for __I$use$fp
    fdiv.o(.text) refers to fepilogue.o(.text) for _float_round
    dadd.o(.text) refers (Special) to iusefp.o(.text) for __I$use$fp
    dadd.o(.text) refers to llshl.o(.text) for __aeabi_llsl
    dadd.o(.text) refers to llsshr.o(.text) for __aeabi_lasr
    dadd.o(.text) refers to depilogue.o(.text) for _double_epilogue
    dmul.o(.text) refers (Special) to iusefp.o(.text) for __I$use$fp
    dmul.o(.text) refers to depilogue.o(.text) for _double_epilogue
    fflti.o(.text) refers (Special) to iusefp.o(.text) for __I$use$fp
    fflti.o(.text) refers to fepilogue.o(.text) for _float_epilogue
    dflti.o(.text) refers (Special) to iusefp.o(.text) for __I$use$fp
    dflti.o(.text) refers to depilogue.o(.text) for _double_epilogue
    dfltui.o(.text) refers (Special) to iusefp.o(.text) for __I$use$fp
    dfltui.o(.text) refers to depilogue.o(.text) for _double_epilogue
    ffixui.o(.text) refers (Special) to iusefp.o(.text) for __I$use$fp
    dfixi.o(.text) refers (Special) to iusefp.o(.text) for __I$use$fp
    dfixi.o(.text) refers to llushr.o(.text) for __aeabi_llsr
    f2d.o(.text) refers (Special) to iusefp.o(.text) for __I$use$fp
    cdcmple.o(.text) refers (Special) to iusefp.o(.text) for __I$use$fp
    cdrcmple.o(.text) refers (Special) to iusefp.o(.text) for __I$use$fp
    d2f.o(.text) refers (Special) to iusefp.o(.text) for __I$use$fp
    d2f.o(.text) refers to fepilogue.o(.text) for _float_round
    entry2.o(.ARM.Collect$$$$00000001) refers to entry2.o(.ARM.Collect$$$$00002712) for __lit__00000000
    entry2.o(.ARM.Collect$$$$00002712) refers to startup_stm32f10x_hd.o(STACK) for __initial_sp
    entry2.o(__vectab_stack_and_reset_area) refers to startup_stm32f10x_hd.o(STACK) for __initial_sp
    entry2.o(__vectab_stack_and_reset_area) refers to entry.o(.ARM.Collect$$$$00000000) for __main
    entry5.o(.ARM.Collect$$$$00000004) refers to init.o(.text) for __scatterload
    entry9a.o(.ARM.Collect$$$$0000000B) refers to main.o(i.main) for main
    entry9b.o(.ARM.Collect$$$$0000000C) refers to main.o(i.main) for main
    uldiv.o(.text) refers to llushr.o(.text) for __aeabi_llsr
    uldiv.o(.text) refers to llshl.o(.text) for __aeabi_llsl
    ctype_o.o(.text) refers to ctype_o.o(.constdata) for .constdata
    ctype_o.o(.constdata) refers to ctype_o.o(.constdata) for __ctype_table
    isalnum_o.o(.text) refers to ctype_o.o(.text) for __rt_ctype_table
    isalpha_o.o(.text) refers to ctype_o.o(.text) for __rt_ctype_table
    isblank_o.o(.text) refers to ctype_o.o(.constdata) for __ctype_table
    iscntrl_o.o(.text) refers to ctype_o.o(.text) for __rt_ctype_table
    isdigit_o.o(.text) refers to ctype_o.o(.text) for __rt_ctype_table
    isgraph_o.o(.text) refers to ctype_o.o(.text) for __rt_ctype_table
    islower_o.o(.text) refers to ctype_o.o(.text) for __rt_ctype_table
    isprint_o.o(.text) refers to ctype_o.o(.text) for __rt_ctype_table
    ispunct_o.o(.text) refers to ctype_o.o(.text) for __rt_ctype_table
    isspace_o.o(.text) refers to ctype_o.o(.text) for __rt_ctype_table
    isupper_o.o(.text) refers to ctype_o.o(.text) for __rt_ctype_table
    isxdigit_o.o(.text) refers to ctype_o.o(.text) for __rt_ctype_table
    errno.o(i.__aeabi_errno_addr) refers to errno.o(.data) for .data
    errno.o(i.__read_errno) refers to errno.o(.data) for .data
    errno.o(i.__set_errno) refers to errno.o(.data) for .data
    scanf_char.o(.text) refers to _scanf.o(.text) for __vfscanf
    scanf_char.o(.text) refers to isspace_o.o(.text) for isspace
    _strtoul.o(.text) refers to _chval.o(.text) for _chval
    _strtoul.o(.text) refers to errno.o(i.__aeabi_errno_addr) for __aeabi_errno_addr
    strtod.o(.text) refers to scanf_fp.o(.text) for _scanf_real
    strtod.o(.text) refers to _sgetc.o(.text) for _sgetc
    strtod.o(.text) refers to isspace_o.o(.text) for isspace
    depilogue.o(.text) refers to llshl.o(.text) for __aeabi_llsl
    depilogue.o(.text) refers to llushr.o(.text) for __aeabi_llsr
    ddiv.o(.text) refers to depilogue.o(.text) for _double_round
    dfltul.o(.text) refers to depilogue.o(.text) for _double_epilogue
    dfixul.o(.text) refers to llushr.o(.text) for __aeabi_llsr
    dfixul.o(.text) refers to llshl.o(.text) for __aeabi_llsl
    init.o(.text) refers to entry5.o(.ARM.Collect$$$$00000004) for __main_after_scatterload
    isspace_c.o(.text) refers to ctype_c.o(.text) for __ctype_lookup
    _scanf.o(.text) refers (Weak) to scanf_fp.o(.text) for _scanf_real
    ctype_c.o(.text) refers to ctype_c.o(.constdata) for .constdata
    scanf_fp.o(i._is_digit) refers (Special) to iusefp.o(.text) for __I$use$fp


==============================================================================

Removing Unused input sections from the image.

    Removing core_cm3.o(.emb_text), (32 bytes).
    Removing system_stm32f10x.o(i.SystemCoreClockUpdate), (164 bytes).
    Removing system_stm32f10x.o(.data), (20 bytes).
    Removing misc.o(i.NVIC_SetVectorTable), (20 bytes).
    Removing misc.o(i.NVIC_SystemLPConfig), (32 bytes).
    Removing misc.o(i.SysTick_CLKSourceConfig), (40 bytes).
    Removing stm32f10x_adc.o(i.ADC_AnalogWatchdogCmd), (20 bytes).
    Removing stm32f10x_adc.o(i.ADC_AnalogWatchdogSingleChannelConfig), (16 bytes).
    Removing stm32f10x_adc.o(i.ADC_AnalogWatchdogThresholdsConfig), (6 bytes).
    Removing stm32f10x_adc.o(i.ADC_AutoInjectedConvCmd), (22 bytes).
    Removing stm32f10x_adc.o(i.ADC_ClearFlag), (6 bytes).
    Removing stm32f10x_adc.o(i.ADC_ClearITPendingBit), (10 bytes).
    Removing stm32f10x_adc.o(i.ADC_Cmd), (22 bytes).
    Removing stm32f10x_adc.o(i.ADC_DMACmd), (22 bytes).
    Removing stm32f10x_adc.o(i.ADC_DeInit), (92 bytes).
    Removing stm32f10x_adc.o(i.ADC_DiscModeChannelCountConfig), (24 bytes).
    Removing stm32f10x_adc.o(i.ADC_DiscModeCmd), (22 bytes).
    Removing stm32f10x_adc.o(i.ADC_ExternalTrigConvCmd), (22 bytes).
    Removing stm32f10x_adc.o(i.ADC_ExternalTrigInjectedConvCmd), (22 bytes).
    Removing stm32f10x_adc.o(i.ADC_ExternalTrigInjectedConvConfig), (16 bytes).
    Removing stm32f10x_adc.o(i.ADC_GetCalibrationStatus), (20 bytes).
    Removing stm32f10x_adc.o(i.ADC_GetConversionValue), (8 bytes).
    Removing stm32f10x_adc.o(i.ADC_GetDualModeConversionValue), (12 bytes).
    Removing stm32f10x_adc.o(i.ADC_GetFlagStatus), (18 bytes).
    Removing stm32f10x_adc.o(i.ADC_GetITStatus), (36 bytes).
    Removing stm32f10x_adc.o(i.ADC_GetInjectedConversionValue), (28 bytes).
    Removing stm32f10x_adc.o(i.ADC_GetResetCalibrationStatus), (20 bytes).
    Removing stm32f10x_adc.o(i.ADC_GetSoftwareStartConvStatus), (20 bytes).
    Removing stm32f10x_adc.o(i.ADC_GetSoftwareStartInjectedConvCmdStatus), (20 bytes).
    Removing stm32f10x_adc.o(i.ADC_ITConfig), (24 bytes).
    Removing stm32f10x_adc.o(i.ADC_Init), (80 bytes).
    Removing stm32f10x_adc.o(i.ADC_InjectedChannelConfig), (130 bytes).
    Removing stm32f10x_adc.o(i.ADC_InjectedDiscModeCmd), (22 bytes).
    Removing stm32f10x_adc.o(i.ADC_InjectedSequencerLengthConfig), (24 bytes).
    Removing stm32f10x_adc.o(i.ADC_RegularChannelConfig), (184 bytes).
    Removing stm32f10x_adc.o(i.ADC_ResetCalibration), (10 bytes).
    Removing stm32f10x_adc.o(i.ADC_SetInjectedOffset), (20 bytes).
    Removing stm32f10x_adc.o(i.ADC_SoftwareStartConvCmd), (22 bytes).
    Removing stm32f10x_adc.o(i.ADC_SoftwareStartInjectedConvCmd), (22 bytes).
    Removing stm32f10x_adc.o(i.ADC_StartCalibration), (10 bytes).
    Removing stm32f10x_adc.o(i.ADC_StructInit), (18 bytes).
    Removing stm32f10x_adc.o(i.ADC_TempSensorVrefintCmd), (36 bytes).
    Removing stm32f10x_bkp.o(i.BKP_ClearFlag), (20 bytes).
    Removing stm32f10x_bkp.o(i.BKP_ClearITPendingBit), (20 bytes).
    Removing stm32f10x_bkp.o(i.BKP_DeInit), (16 bytes).
    Removing stm32f10x_bkp.o(i.BKP_GetFlagStatus), (12 bytes).
    Removing stm32f10x_bkp.o(i.BKP_GetITStatus), (12 bytes).
    Removing stm32f10x_bkp.o(i.BKP_ITConfig), (12 bytes).
    Removing stm32f10x_bkp.o(i.BKP_RTCOutputConfig), (28 bytes).
    Removing stm32f10x_bkp.o(i.BKP_ReadBackupRegister), (28 bytes).
    Removing stm32f10x_bkp.o(i.BKP_SetRTCCalibrationValue), (28 bytes).
    Removing stm32f10x_bkp.o(i.BKP_TamperPinCmd), (12 bytes).
    Removing stm32f10x_bkp.o(i.BKP_TamperPinLevelConfig), (12 bytes).
    Removing stm32f10x_bkp.o(i.BKP_WriteBackupRegister), (28 bytes).
    Removing stm32f10x_can.o(i.CAN_CancelTransmit), (48 bytes).
    Removing stm32f10x_can.o(i.CAN_ClearFlag), (56 bytes).
    Removing stm32f10x_can.o(i.CAN_ClearITPendingBit), (168 bytes).
    Removing stm32f10x_can.o(i.CAN_DBGFreeze), (22 bytes).
    Removing stm32f10x_can.o(i.CAN_DeInit), (56 bytes).
    Removing stm32f10x_can.o(i.CAN_FIFORelease), (22 bytes).
    Removing stm32f10x_can.o(i.CAN_FilterInit), (264 bytes).
    Removing stm32f10x_can.o(i.CAN_GetFlagStatus), (120 bytes).
    Removing stm32f10x_can.o(i.CAN_GetITStatus), (288 bytes).
    Removing stm32f10x_can.o(i.CAN_GetLSBTransmitErrorCounter), (12 bytes).
    Removing stm32f10x_can.o(i.CAN_GetLastErrorCode), (12 bytes).
    Removing stm32f10x_can.o(i.CAN_GetReceiveErrorCounter), (10 bytes).
    Removing stm32f10x_can.o(i.CAN_ITConfig), (18 bytes).
    Removing stm32f10x_can.o(i.CAN_Init), (276 bytes).
    Removing stm32f10x_can.o(i.CAN_MessagePending), (30 bytes).
    Removing stm32f10x_can.o(i.CAN_OperatingModeRequest), (162 bytes).
    Removing stm32f10x_can.o(i.CAN_Receive), (240 bytes).
    Removing stm32f10x_can.o(i.CAN_SlaveStartBank), (52 bytes).
    Removing stm32f10x_can.o(i.CAN_Sleep), (30 bytes).
    Removing stm32f10x_can.o(i.CAN_StructInit), (32 bytes).
    Removing stm32f10x_can.o(i.CAN_TTComModeCmd), (118 bytes).
    Removing stm32f10x_can.o(i.CAN_Transmit), (294 bytes).
    Removing stm32f10x_can.o(i.CAN_TransmitStatus), (160 bytes).
    Removing stm32f10x_can.o(i.CAN_WakeUp), (48 bytes).
    Removing stm32f10x_can.o(i.CheckITStatus), (18 bytes).
    Removing stm32f10x_cec.o(i.CEC_ClearFlag), (36 bytes).
    Removing stm32f10x_cec.o(i.CEC_ClearITPendingBit), (36 bytes).
    Removing stm32f10x_cec.o(i.CEC_Cmd), (32 bytes).
    Removing stm32f10x_cec.o(i.CEC_DeInit), (22 bytes).
    Removing stm32f10x_cec.o(i.CEC_EndOfMessageCmd), (12 bytes).
    Removing stm32f10x_cec.o(i.CEC_GetFlagStatus), (48 bytes).
    Removing stm32f10x_cec.o(i.CEC_GetITStatus), (40 bytes).
    Removing stm32f10x_cec.o(i.CEC_ITConfig), (12 bytes).
    Removing stm32f10x_cec.o(i.CEC_Init), (32 bytes).
    Removing stm32f10x_cec.o(i.CEC_OwnAddressConfig), (12 bytes).
    Removing stm32f10x_cec.o(i.CEC_ReceiveDataByte), (12 bytes).
    Removing stm32f10x_cec.o(i.CEC_SendDataByte), (12 bytes).
    Removing stm32f10x_cec.o(i.CEC_SetPrescaler), (12 bytes).
    Removing stm32f10x_cec.o(i.CEC_StartOfMessage), (12 bytes).
    Removing stm32f10x_crc.o(i.CRC_CalcBlockCRC), (36 bytes).
    Removing stm32f10x_crc.o(i.CRC_CalcCRC), (16 bytes).
    Removing stm32f10x_crc.o(i.CRC_GetCRC), (12 bytes).
    Removing stm32f10x_crc.o(i.CRC_GetIDRegister), (12 bytes).
    Removing stm32f10x_crc.o(i.CRC_ResetDR), (12 bytes).
    Removing stm32f10x_crc.o(i.CRC_SetIDRegister), (12 bytes).
    Removing stm32f10x_dac.o(i.DAC_Cmd), (40 bytes).
    Removing stm32f10x_dac.o(i.DAC_DMACmd), (44 bytes).
    Removing stm32f10x_dac.o(i.DAC_DeInit), (22 bytes).
    Removing stm32f10x_dac.o(i.DAC_DualSoftwareTriggerCmd), (36 bytes).
    Removing stm32f10x_dac.o(i.DAC_GetDataOutputValue), (36 bytes).
    Removing stm32f10x_dac.o(i.DAC_Init), (52 bytes).
    Removing stm32f10x_dac.o(i.DAC_SetChannel1Data), (32 bytes).
    Removing stm32f10x_dac.o(i.DAC_SetChannel2Data), (32 bytes).
    Removing stm32f10x_dac.o(i.DAC_SetDualChannelData), (36 bytes).
    Removing stm32f10x_dac.o(i.DAC_SoftwareTriggerCmd), (44 bytes).
    Removing stm32f10x_dac.o(i.DAC_StructInit), (12 bytes).
    Removing stm32f10x_dac.o(i.DAC_WaveGenerationCmd), (40 bytes).
    Removing stm32f10x_dbgmcu.o(i.DBGMCU_Config), (32 bytes).
    Removing stm32f10x_dbgmcu.o(i.DBGMCU_GetDEVID), (16 bytes).
    Removing stm32f10x_dbgmcu.o(i.DBGMCU_GetREVID), (12 bytes).
    Removing stm32f10x_dma.o(i.DMA_ClearFlag), (28 bytes).
    Removing stm32f10x_dma.o(i.DMA_ClearITPendingBit), (28 bytes).
    Removing stm32f10x_dma.o(i.DMA_Cmd), (24 bytes).
    Removing stm32f10x_dma.o(i.DMA_DeInit), (332 bytes).
    Removing stm32f10x_dma.o(i.DMA_GetCurrDataCounter), (8 bytes).
    Removing stm32f10x_dma.o(i.DMA_GetFlagStatus), (44 bytes).
    Removing stm32f10x_dma.o(i.DMA_GetITStatus), (44 bytes).
    Removing stm32f10x_dma.o(i.DMA_ITConfig), (18 bytes).
    Removing stm32f10x_dma.o(i.DMA_Init), (60 bytes).
    Removing stm32f10x_dma.o(i.DMA_SetCurrDataCounter), (4 bytes).
    Removing stm32f10x_dma.o(i.DMA_StructInit), (26 bytes).
    Removing stm32f10x_exti.o(i.EXTI_ClearFlag), (12 bytes).
    Removing stm32f10x_exti.o(i.EXTI_ClearITPendingBit), (12 bytes).
    Removing stm32f10x_exti.o(i.EXTI_DeInit), (36 bytes).
    Removing stm32f10x_exti.o(i.EXTI_GenerateSWInterrupt), (16 bytes).
    Removing stm32f10x_exti.o(i.EXTI_GetFlagStatus), (24 bytes).
    Removing stm32f10x_exti.o(i.EXTI_GetITStatus), (40 bytes).
    Removing stm32f10x_exti.o(i.EXTI_Init), (148 bytes).
    Removing stm32f10x_exti.o(i.EXTI_StructInit), (16 bytes).
    Removing stm32f10x_flash.o(i.FLASH_ClearFlag), (12 bytes).
    Removing stm32f10x_flash.o(i.FLASH_EnableWriteProtection), (196 bytes).
    Removing stm32f10x_flash.o(i.FLASH_EraseAllBank1Pages), (72 bytes).
    Removing stm32f10x_flash.o(i.FLASH_EraseAllPages), (72 bytes).
    Removing stm32f10x_flash.o(i.FLASH_EraseOptionBytes), (168 bytes).
    Removing stm32f10x_flash.o(i.FLASH_ErasePage), (76 bytes).
    Removing stm32f10x_flash.o(i.FLASH_GetBank1Status), (52 bytes).
    Removing stm32f10x_flash.o(i.FLASH_GetFlagStatus), (48 bytes).
    Removing stm32f10x_flash.o(i.FLASH_GetPrefetchBufferStatus), (24 bytes).
    Removing stm32f10x_flash.o(i.FLASH_GetReadOutProtectionStatus), (24 bytes).
    Removing stm32f10x_flash.o(i.FLASH_GetStatus), (52 bytes).
    Removing stm32f10x_flash.o(i.FLASH_GetUserOptionByte), (12 bytes).
    Removing stm32f10x_flash.o(i.FLASH_GetWriteProtectionOptionByte), (12 bytes).
    Removing stm32f10x_flash.o(i.FLASH_HalfCycleAccessCmd), (28 bytes).
    Removing stm32f10x_flash.o(i.FLASH_ITConfig), (32 bytes).
    Removing stm32f10x_flash.o(i.FLASH_Lock), (20 bytes).
    Removing stm32f10x_flash.o(i.FLASH_LockBank1), (20 bytes).
    Removing stm32f10x_flash.o(i.FLASH_PrefetchBufferCmd), (28 bytes).
    Removing stm32f10x_flash.o(i.FLASH_ProgramHalfWord), (64 bytes).
    Removing stm32f10x_flash.o(i.FLASH_ProgramOptionByteData), (84 bytes).
    Removing stm32f10x_flash.o(i.FLASH_ProgramWord), (108 bytes).
    Removing stm32f10x_flash.o(i.FLASH_ReadOutProtection), (172 bytes).
    Removing stm32f10x_flash.o(i.FLASH_SetLatency), (24 bytes).
    Removing stm32f10x_flash.o(i.FLASH_Unlock), (24 bytes).
    Removing stm32f10x_flash.o(i.FLASH_UnlockBank1), (24 bytes).
    Removing stm32f10x_flash.o(i.FLASH_UserOptionByteConfig), (104 bytes).
    Removing stm32f10x_flash.o(i.FLASH_WaitForLastBank1Operation), (38 bytes).
    Removing stm32f10x_flash.o(i.FLASH_WaitForLastOperation), (38 bytes).
    Removing stm32f10x_fsmc.o(i.FSMC_ClearFlag), (64 bytes).
    Removing stm32f10x_fsmc.o(i.FSMC_ClearITPendingBit), (72 bytes).
    Removing stm32f10x_fsmc.o(i.FSMC_GetECC), (28 bytes).
    Removing stm32f10x_fsmc.o(i.FSMC_GetFlagStatus), (56 bytes).
    Removing stm32f10x_fsmc.o(i.FSMC_GetITStatus), (68 bytes).
    Removing stm32f10x_fsmc.o(i.FSMC_ITConfig), (128 bytes).
    Removing stm32f10x_fsmc.o(i.FSMC_NANDCmd), (92 bytes).
    Removing stm32f10x_fsmc.o(i.FSMC_NANDDeInit), (68 bytes).
    Removing stm32f10x_fsmc.o(i.FSMC_NANDECCCmd), (92 bytes).
    Removing stm32f10x_fsmc.o(i.FSMC_NANDInit), (136 bytes).
    Removing stm32f10x_fsmc.o(i.FSMC_NANDStructInit), (54 bytes).
    Removing stm32f10x_fsmc.o(i.FSMC_NORSRAMCmd), (52 bytes).
    Removing stm32f10x_fsmc.o(i.FSMC_NORSRAMDeInit), (54 bytes).
    Removing stm32f10x_fsmc.o(i.FSMC_NORSRAMInit), (230 bytes).
    Removing stm32f10x_fsmc.o(i.FSMC_NORSRAMStructInit), (114 bytes).
    Removing stm32f10x_fsmc.o(i.FSMC_PCCARDCmd), (48 bytes).
    Removing stm32f10x_fsmc.o(i.FSMC_PCCARDDeInit), (40 bytes).
    Removing stm32f10x_fsmc.o(i.FSMC_PCCARDInit), (132 bytes).
    Removing stm32f10x_fsmc.o(i.FSMC_PCCARDStructInit), (60 bytes).
    Removing stm32f10x_gpio.o(i.GPIO_AFIODeInit), (20 bytes).
    Removing stm32f10x_gpio.o(i.GPIO_DeInit), (200 bytes).
    Removing stm32f10x_gpio.o(i.GPIO_ETH_MediaInterfaceConfig), (12 bytes).
    Removing stm32f10x_gpio.o(i.GPIO_EXTILineConfig), (64 bytes).
    Removing stm32f10x_gpio.o(i.GPIO_EventOutputCmd), (12 bytes).
    Removing stm32f10x_gpio.o(i.GPIO_EventOutputConfig), (32 bytes).
    Removing stm32f10x_gpio.o(i.GPIO_PinLockConfig), (18 bytes).
    Removing stm32f10x_gpio.o(i.GPIO_PinRemapConfig), (144 bytes).
    Removing stm32f10x_gpio.o(i.GPIO_ReadInputData), (8 bytes).
    Removing stm32f10x_gpio.o(i.GPIO_ReadInputDataBit), (18 bytes).
    Removing stm32f10x_gpio.o(i.GPIO_ReadOutputData), (8 bytes).
    Removing stm32f10x_gpio.o(i.GPIO_ReadOutputDataBit), (18 bytes).
    Removing stm32f10x_gpio.o(i.GPIO_ResetBits), (4 bytes).
    Removing stm32f10x_gpio.o(i.GPIO_SetBits), (4 bytes).
    Removing stm32f10x_gpio.o(i.GPIO_StructInit), (16 bytes).
    Removing stm32f10x_gpio.o(i.GPIO_Write), (4 bytes).
    Removing stm32f10x_gpio.o(i.GPIO_WriteBit), (10 bytes).
    Removing stm32f10x_i2c.o(i.I2C_ARPCmd), (24 bytes).
    Removing stm32f10x_i2c.o(i.I2C_AcknowledgeConfig), (24 bytes).
    Removing stm32f10x_i2c.o(i.I2C_CalculatePEC), (24 bytes).
    Removing stm32f10x_i2c.o(i.I2C_CheckEvent), (42 bytes).
    Removing stm32f10x_i2c.o(i.I2C_ClearFlag), (12 bytes).
    Removing stm32f10x_i2c.o(i.I2C_ClearITPendingBit), (12 bytes).
    Removing stm32f10x_i2c.o(i.I2C_Cmd), (24 bytes).
    Removing stm32f10x_i2c.o(i.I2C_DMACmd), (24 bytes).
    Removing stm32f10x_i2c.o(i.I2C_DMALastTransferCmd), (24 bytes).
    Removing stm32f10x_i2c.o(i.I2C_DeInit), (56 bytes).
    Removing stm32f10x_i2c.o(i.I2C_DualAddressCmd), (24 bytes).
    Removing stm32f10x_i2c.o(i.I2C_FastModeDutyCycleConfig), (28 bytes).
    Removing stm32f10x_i2c.o(i.I2C_GeneralCallCmd), (24 bytes).
    Removing stm32f10x_i2c.o(i.I2C_GenerateSTART), (24 bytes).
    Removing stm32f10x_i2c.o(i.I2C_GenerateSTOP), (24 bytes).
    Removing stm32f10x_i2c.o(i.I2C_GetFlagStatus), (58 bytes).
    Removing stm32f10x_i2c.o(i.I2C_GetITStatus), (38 bytes).
    Removing stm32f10x_i2c.o(i.I2C_GetLastEvent), (26 bytes).
    Removing stm32f10x_i2c.o(i.I2C_GetPEC), (8 bytes).
    Removing stm32f10x_i2c.o(i.I2C_ITConfig), (18 bytes).
    Removing stm32f10x_i2c.o(i.I2C_Init), (236 bytes).
    Removing stm32f10x_i2c.o(i.I2C_NACKPositionConfig), (28 bytes).
    Removing stm32f10x_i2c.o(i.I2C_OwnAddress2Config), (22 bytes).
    Removing stm32f10x_i2c.o(i.I2C_PECPositionConfig), (28 bytes).
    Removing stm32f10x_i2c.o(i.I2C_ReadRegister), (22 bytes).
    Removing stm32f10x_i2c.o(i.I2C_ReceiveData), (8 bytes).
    Removing stm32f10x_i2c.o(i.I2C_SMBusAlertConfig), (28 bytes).
    Removing stm32f10x_i2c.o(i.I2C_Send7bitAddress), (18 bytes).
    Removing stm32f10x_i2c.o(i.I2C_SendData), (4 bytes).
    Removing stm32f10x_i2c.o(i.I2C_SoftwareResetCmd), (22 bytes).
    Removing stm32f10x_i2c.o(i.I2C_StretchClockCmd), (24 bytes).
    Removing stm32f10x_i2c.o(i.I2C_StructInit), (30 bytes).
    Removing stm32f10x_i2c.o(i.I2C_TransmitPEC), (24 bytes).
    Removing stm32f10x_iwdg.o(i.IWDG_Enable), (16 bytes).
    Removing stm32f10x_iwdg.o(i.IWDG_GetFlagStatus), (24 bytes).
    Removing stm32f10x_iwdg.o(i.IWDG_ReloadCounter), (16 bytes).
    Removing stm32f10x_iwdg.o(i.IWDG_SetPrescaler), (12 bytes).
    Removing stm32f10x_iwdg.o(i.IWDG_SetReload), (12 bytes).
    Removing stm32f10x_iwdg.o(i.IWDG_WriteAccessCmd), (12 bytes).
    Removing stm32f10x_pwr.o(i.PWR_BackupAccessCmd), (12 bytes).
    Removing stm32f10x_pwr.o(i.PWR_ClearFlag), (20 bytes).
    Removing stm32f10x_pwr.o(i.PWR_DeInit), (22 bytes).
    Removing stm32f10x_pwr.o(i.PWR_EnterSTANDBYMode), (52 bytes).
    Removing stm32f10x_pwr.o(i.PWR_EnterSTOPMode), (64 bytes).
    Removing stm32f10x_pwr.o(i.PWR_GetFlagStatus), (24 bytes).
    Removing stm32f10x_pwr.o(i.PWR_PVDCmd), (12 bytes).
    Removing stm32f10x_pwr.o(i.PWR_PVDLevelConfig), (24 bytes).
    Removing stm32f10x_pwr.o(i.PWR_WakeUpPinCmd), (12 bytes).
    Removing stm32f10x_rcc.o(i.RCC_ADCCLKConfig), (24 bytes).
    Removing stm32f10x_rcc.o(i.RCC_AHBPeriphClockCmd), (32 bytes).
    Removing stm32f10x_rcc.o(i.RCC_APB1PeriphResetCmd), (32 bytes).
    Removing stm32f10x_rcc.o(i.RCC_APB2PeriphResetCmd), (32 bytes).
    Removing stm32f10x_rcc.o(i.RCC_AdjustHSICalibrationValue), (24 bytes).
    Removing stm32f10x_rcc.o(i.RCC_BackupResetCmd), (12 bytes).
    Removing stm32f10x_rcc.o(i.RCC_ClearFlag), (20 bytes).
    Removing stm32f10x_rcc.o(i.RCC_ClearITPendingBit), (12 bytes).
    Removing stm32f10x_rcc.o(i.RCC_ClockSecuritySystemCmd), (12 bytes).
    Removing stm32f10x_rcc.o(i.RCC_DeInit), (76 bytes).
    Removing stm32f10x_rcc.o(i.RCC_GetFlagStatus), (60 bytes).
    Removing stm32f10x_rcc.o(i.RCC_GetITStatus), (24 bytes).
    Removing stm32f10x_rcc.o(i.RCC_GetSYSCLKSource), (16 bytes).
    Removing stm32f10x_rcc.o(i.RCC_HCLKConfig), (24 bytes).
    Removing stm32f10x_rcc.o(i.RCC_HSEConfig), (76 bytes).
    Removing stm32f10x_rcc.o(i.RCC_HSICmd), (12 bytes).
    Removing stm32f10x_rcc.o(i.RCC_ITConfig), (32 bytes).
    Removing stm32f10x_rcc.o(i.RCC_LSEConfig), (52 bytes).
    Removing stm32f10x_rcc.o(i.RCC_LSICmd), (12 bytes).
    Removing stm32f10x_rcc.o(i.RCC_MCOConfig), (12 bytes).
    Removing stm32f10x_rcc.o(i.RCC_PCLK1Config), (24 bytes).
    Removing stm32f10x_rcc.o(i.RCC_PCLK2Config), (24 bytes).
    Removing stm32f10x_rcc.o(i.RCC_PLLCmd), (12 bytes).
    Removing stm32f10x_rcc.o(i.RCC_PLLConfig), (28 bytes).
    Removing stm32f10x_rcc.o(i.RCC_RTCCLKCmd), (12 bytes).
    Removing stm32f10x_rcc.o(i.RCC_RTCCLKConfig), (16 bytes).
    Removing stm32f10x_rcc.o(i.RCC_SYSCLKConfig), (24 bytes).
    Removing stm32f10x_rcc.o(i.RCC_USBCLKConfig), (12 bytes).
    Removing stm32f10x_rcc.o(i.RCC_WaitForHSEStartUp), (56 bytes).
    Removing stm32f10x_rtc.o(i.RTC_ClearFlag), (16 bytes).
    Removing stm32f10x_rtc.o(i.RTC_ClearITPendingBit), (16 bytes).
    Removing stm32f10x_rtc.o(i.RTC_EnterConfigMode), (20 bytes).
    Removing stm32f10x_rtc.o(i.RTC_ExitConfigMode), (20 bytes).
    Removing stm32f10x_rtc.o(i.RTC_GetCounter), (20 bytes).
    Removing stm32f10x_rtc.o(i.RTC_GetDivider), (24 bytes).
    Removing stm32f10x_rtc.o(i.RTC_GetFlagStatus), (24 bytes).
    Removing stm32f10x_rtc.o(i.RTC_GetITStatus), (36 bytes).
    Removing stm32f10x_rtc.o(i.RTC_ITConfig), (32 bytes).
    Removing stm32f10x_rtc.o(i.RTC_SetAlarm), (28 bytes).
    Removing stm32f10x_rtc.o(i.RTC_SetCounter), (28 bytes).
    Removing stm32f10x_rtc.o(i.RTC_SetPrescaler), (32 bytes).
    Removing stm32f10x_rtc.o(i.RTC_WaitForLastTask), (20 bytes).
    Removing stm32f10x_rtc.o(i.RTC_WaitForSynchro), (36 bytes).
    Removing stm32f10x_sdio.o(i.SDIO_CEATAITCmd), (16 bytes).
    Removing stm32f10x_sdio.o(i.SDIO_ClearFlag), (12 bytes).
    Removing stm32f10x_sdio.o(i.SDIO_ClearITPendingBit), (12 bytes).
    Removing stm32f10x_sdio.o(i.SDIO_ClockCmd), (12 bytes).
    Removing stm32f10x_sdio.o(i.SDIO_CmdStructInit), (14 bytes).
    Removing stm32f10x_sdio.o(i.SDIO_CommandCompletionCmd), (12 bytes).
    Removing stm32f10x_sdio.o(i.SDIO_DMACmd), (12 bytes).
    Removing stm32f10x_sdio.o(i.SDIO_DataConfig), (48 bytes).
    Removing stm32f10x_sdio.o(i.SDIO_DataStructInit), (20 bytes).
    Removing stm32f10x_sdio.o(i.SDIO_DeInit), (36 bytes).
    Removing stm32f10x_sdio.o(i.SDIO_GetCommandResponse), (12 bytes).
    Removing stm32f10x_sdio.o(i.SDIO_GetDataCounter), (12 bytes).
    Removing stm32f10x_sdio.o(i.SDIO_GetFIFOCount), (12 bytes).
    Removing stm32f10x_sdio.o(i.SDIO_GetFlagStatus), (24 bytes).
    Removing stm32f10x_sdio.o(i.SDIO_GetITStatus), (24 bytes).
    Removing stm32f10x_sdio.o(i.SDIO_GetPowerState), (16 bytes).
    Removing stm32f10x_sdio.o(i.SDIO_GetResponse), (24 bytes).
    Removing stm32f10x_sdio.o(i.SDIO_ITConfig), (32 bytes).
    Removing stm32f10x_sdio.o(i.SDIO_Init), (48 bytes).
    Removing stm32f10x_sdio.o(i.SDIO_ReadData), (12 bytes).
    Removing stm32f10x_sdio.o(i.SDIO_SendCEATACmd), (12 bytes).
    Removing stm32f10x_sdio.o(i.SDIO_SendCommand), (44 bytes).
    Removing stm32f10x_sdio.o(i.SDIO_SendSDIOSuspendCmd), (12 bytes).
    Removing stm32f10x_sdio.o(i.SDIO_SetPowerState), (28 bytes).
    Removing stm32f10x_sdio.o(i.SDIO_SetSDIOOperation), (12 bytes).
    Removing stm32f10x_sdio.o(i.SDIO_SetSDIOReadWaitMode), (12 bytes).
    Removing stm32f10x_sdio.o(i.SDIO_StartSDIOReadWait), (12 bytes).
    Removing stm32f10x_sdio.o(i.SDIO_StopSDIOReadWait), (12 bytes).
    Removing stm32f10x_sdio.o(i.SDIO_StructInit), (16 bytes).
    Removing stm32f10x_sdio.o(i.SDIO_WriteData), (12 bytes).
    Removing stm32f10x_spi.o(i.I2S_Cmd), (24 bytes).
    Removing stm32f10x_spi.o(i.I2S_Init), (232 bytes).
    Removing stm32f10x_spi.o(i.I2S_StructInit), (20 bytes).
    Removing stm32f10x_spi.o(i.SPI_BiDirectionalLineConfig), (28 bytes).
    Removing stm32f10x_spi.o(i.SPI_CalculateCRC), (24 bytes).
    Removing stm32f10x_spi.o(i.SPI_Cmd), (24 bytes).
    Removing stm32f10x_spi.o(i.SPI_DataSizeConfig), (18 bytes).
    Removing stm32f10x_spi.o(i.SPI_GetCRC), (16 bytes).
    Removing stm32f10x_spi.o(i.SPI_GetCRCPolynomial), (6 bytes).
    Removing stm32f10x_spi.o(i.SPI_I2S_ClearFlag), (6 bytes).
    Removing stm32f10x_spi.o(i.SPI_I2S_ClearITPendingBit), (20 bytes).
    Removing stm32f10x_spi.o(i.SPI_I2S_DMACmd), (18 bytes).
    Removing stm32f10x_spi.o(i.SPI_I2S_DeInit), (88 bytes).
    Removing stm32f10x_spi.o(i.SPI_I2S_GetFlagStatus), (18 bytes).
    Removing stm32f10x_spi.o(i.SPI_I2S_GetITStatus), (52 bytes).
    Removing stm32f10x_spi.o(i.SPI_I2S_ITConfig), (32 bytes).
    Removing stm32f10x_spi.o(i.SPI_I2S_ReceiveData), (6 bytes).
    Removing stm32f10x_spi.o(i.SPI_I2S_SendData), (4 bytes).
    Removing stm32f10x_spi.o(i.SPI_Init), (60 bytes).
    Removing stm32f10x_spi.o(i.SPI_NSSInternalSoftwareConfig), (30 bytes).
    Removing stm32f10x_spi.o(i.SPI_SSOutputCmd), (24 bytes).
    Removing stm32f10x_spi.o(i.SPI_StructInit), (24 bytes).
    Removing stm32f10x_spi.o(i.SPI_TransmitCRC), (10 bytes).
    Removing stm32f10x_tim.o(i.TI1_Config), (128 bytes).
    Removing stm32f10x_tim.o(i.TI2_Config), (152 bytes).
    Removing stm32f10x_tim.o(i.TI3_Config), (144 bytes).
    Removing stm32f10x_tim.o(i.TI4_Config), (152 bytes).
    Removing stm32f10x_tim.o(i.TIM_ARRPreloadConfig), (24 bytes).
    Removing stm32f10x_tim.o(i.TIM_BDTRConfig), (32 bytes).
    Removing stm32f10x_tim.o(i.TIM_BDTRStructInit), (18 bytes).
    Removing stm32f10x_tim.o(i.TIM_CCPreloadControl), (24 bytes).
    Removing stm32f10x_tim.o(i.TIM_CCxCmd), (30 bytes).
    Removing stm32f10x_tim.o(i.TIM_CCxNCmd), (30 bytes).
    Removing stm32f10x_tim.o(i.TIM_ClearFlag), (6 bytes).
    Removing stm32f10x_tim.o(i.TIM_ClearITPendingBit), (6 bytes).
    Removing stm32f10x_tim.o(i.TIM_ClearOC1Ref), (18 bytes).
    Removing stm32f10x_tim.o(i.TIM_ClearOC2Ref), (24 bytes).
    Removing stm32f10x_tim.o(i.TIM_ClearOC3Ref), (18 bytes).
    Removing stm32f10x_tim.o(i.TIM_ClearOC4Ref), (24 bytes).
    Removing stm32f10x_tim.o(i.TIM_CounterModeConfig), (18 bytes).
    Removing stm32f10x_tim.o(i.TIM_CtrlPWMOutputs), (30 bytes).
    Removing stm32f10x_tim.o(i.TIM_DMACmd), (18 bytes).
    Removing stm32f10x_tim.o(i.TIM_DMAConfig), (10 bytes).
    Removing stm32f10x_tim.o(i.TIM_DeInit), (488 bytes).
    Removing stm32f10x_tim.o(i.TIM_ETRClockMode1Config), (54 bytes).
    Removing stm32f10x_tim.o(i.TIM_ETRClockMode2Config), (32 bytes).
    Removing stm32f10x_tim.o(i.TIM_ETRConfig), (28 bytes).
    Removing stm32f10x_tim.o(i.TIM_EncoderInterfaceConfig), (66 bytes).
    Removing stm32f10x_tim.o(i.TIM_ForcedOC1Config), (18 bytes).
    Removing stm32f10x_tim.o(i.TIM_ForcedOC2Config), (26 bytes).
    Removing stm32f10x_tim.o(i.TIM_ForcedOC3Config), (18 bytes).
    Removing stm32f10x_tim.o(i.TIM_ForcedOC4Config), (26 bytes).
    Removing stm32f10x_tim.o(i.TIM_GenerateEvent), (4 bytes).
    Removing stm32f10x_tim.o(i.TIM_GetCapture1), (6 bytes).
    Removing stm32f10x_tim.o(i.TIM_GetCapture2), (6 bytes).
    Removing stm32f10x_tim.o(i.TIM_GetCapture3), (6 bytes).
    Removing stm32f10x_tim.o(i.TIM_GetCapture4), (8 bytes).
    Removing stm32f10x_tim.o(i.TIM_GetCounter), (6 bytes).
    Removing stm32f10x_tim.o(i.TIM_GetFlagStatus), (18 bytes).
    Removing stm32f10x_tim.o(i.TIM_GetITStatus), (34 bytes).
    Removing stm32f10x_tim.o(i.TIM_GetPrescaler), (6 bytes).
    Removing stm32f10x_tim.o(i.TIM_ICInit), (172 bytes).
    Removing stm32f10x_tim.o(i.TIM_ICStructInit), (18 bytes).
    Removing stm32f10x_tim.o(i.TIM_ITConfig), (18 bytes).
    Removing stm32f10x_tim.o(i.TIM_ITRxExternalClockConfig), (24 bytes).
    Removing stm32f10x_tim.o(i.TIM_OC1FastConfig), (18 bytes).
    Removing stm32f10x_tim.o(i.TIM_OC1Init), (152 bytes).
    Removing stm32f10x_tim.o(i.TIM_OC1NPolarityConfig), (18 bytes).
    Removing stm32f10x_tim.o(i.TIM_OC1PolarityConfig), (18 bytes).
    Removing stm32f10x_tim.o(i.TIM_OC1PreloadConfig), (18 bytes).
    Removing stm32f10x_tim.o(i.TIM_OC2FastConfig), (26 bytes).
    Removing stm32f10x_tim.o(i.TIM_OC2NPolarityConfig), (26 bytes).
    Removing stm32f10x_tim.o(i.TIM_OC2PolarityConfig), (26 bytes).
    Removing stm32f10x_tim.o(i.TIM_OC2PreloadConfig), (26 bytes).
    Removing stm32f10x_tim.o(i.TIM_OC3FastConfig), (18 bytes).
    Removing stm32f10x_tim.o(i.TIM_OC3Init), (160 bytes).
    Removing stm32f10x_tim.o(i.TIM_OC3NPolarityConfig), (26 bytes).
    Removing stm32f10x_tim.o(i.TIM_OC3PolarityConfig), (26 bytes).
    Removing stm32f10x_tim.o(i.TIM_OC3PreloadConfig), (18 bytes).
    Removing stm32f10x_tim.o(i.TIM_OC4FastConfig), (26 bytes).
    Removing stm32f10x_tim.o(i.TIM_OC4Init), (124 bytes).
    Removing stm32f10x_tim.o(i.TIM_OC4PolarityConfig), (26 bytes).
    Removing stm32f10x_tim.o(i.TIM_OC4PreloadConfig), (26 bytes).
    Removing stm32f10x_tim.o(i.TIM_PWMIConfig), (124 bytes).
    Removing stm32f10x_tim.o(i.TIM_PrescalerConfig), (6 bytes).
    Removing stm32f10x_tim.o(i.TIM_SelectCCDMA), (24 bytes).
    Removing stm32f10x_tim.o(i.TIM_SelectCOM), (24 bytes).
    Removing stm32f10x_tim.o(i.TIM_SelectHallSensor), (24 bytes).
    Removing stm32f10x_tim.o(i.TIM_SelectInputTrigger), (18 bytes).
    Removing stm32f10x_tim.o(i.TIM_SelectMasterSlaveMode), (18 bytes).
    Removing stm32f10x_tim.o(i.TIM_SelectOCxM), (82 bytes).
    Removing stm32f10x_tim.o(i.TIM_SelectOnePulseMode), (18 bytes).
    Removing stm32f10x_tim.o(i.TIM_SelectOutputTrigger), (18 bytes).
    Removing stm32f10x_tim.o(i.TIM_SelectSlaveMode), (18 bytes).
    Removing stm32f10x_tim.o(i.TIM_SetAutoreload), (4 bytes).
    Removing stm32f10x_tim.o(i.TIM_SetClockDivision), (18 bytes).
    Removing stm32f10x_tim.o(i.TIM_SetCompare1), (4 bytes).
    Removing stm32f10x_tim.o(i.TIM_SetCompare3), (4 bytes).
    Removing stm32f10x_tim.o(i.TIM_SetCompare4), (6 bytes).
    Removing stm32f10x_tim.o(i.TIM_SetCounter), (4 bytes).
    Removing stm32f10x_tim.o(i.TIM_SetIC1Prescaler), (18 bytes).
    Removing stm32f10x_tim.o(i.TIM_SetIC2Prescaler), (26 bytes).
    Removing stm32f10x_tim.o(i.TIM_SetIC3Prescaler), (18 bytes).
    Removing stm32f10x_tim.o(i.TIM_SetIC4Prescaler), (26 bytes).
    Removing stm32f10x_tim.o(i.TIM_TIxExternalClockConfig), (62 bytes).
    Removing stm32f10x_tim.o(i.TIM_TimeBaseStructInit), (18 bytes).
    Removing stm32f10x_tim.o(i.TIM_UpdateDisableConfig), (24 bytes).
    Removing stm32f10x_tim.o(i.TIM_UpdateRequestConfig), (24 bytes).
    Removing stm32f10x_usart.o(i.USART_ClockInit), (34 bytes).
    Removing stm32f10x_usart.o(i.USART_ClockStructInit), (12 bytes).
    Removing stm32f10x_usart.o(i.USART_DMACmd), (18 bytes).
    Removing stm32f10x_usart.o(i.USART_DeInit), (156 bytes).
    Removing stm32f10x_usart.o(i.USART_HalfDuplexCmd), (24 bytes).
    Removing stm32f10x_usart.o(i.USART_IrDACmd), (24 bytes).
    Removing stm32f10x_usart.o(i.USART_IrDAConfig), (18 bytes).
    Removing stm32f10x_usart.o(i.USART_LINBreakDetectLengthConfig), (18 bytes).
    Removing stm32f10x_usart.o(i.USART_LINCmd), (24 bytes).
    Removing stm32f10x_usart.o(i.USART_OneBitMethodCmd), (24 bytes).
    Removing stm32f10x_usart.o(i.USART_OverSampling8Cmd), (22 bytes).
    Removing stm32f10x_usart.o(i.USART_ReceiverWakeUpCmd), (24 bytes).
    Removing stm32f10x_usart.o(i.USART_SendBreak), (10 bytes).
    Removing stm32f10x_usart.o(i.USART_SetAddress), (18 bytes).
    Removing stm32f10x_usart.o(i.USART_SetGuardTime), (16 bytes).
    Removing stm32f10x_usart.o(i.USART_SetPrescaler), (16 bytes).
    Removing stm32f10x_usart.o(i.USART_SmartCardCmd), (24 bytes).
    Removing stm32f10x_usart.o(i.USART_SmartCardNACKCmd), (24 bytes).
    Removing stm32f10x_usart.o(i.USART_StructInit), (24 bytes).
    Removing stm32f10x_usart.o(i.USART_WakeUpConfig), (18 bytes).
    Removing stm32f10x_wwdg.o(i.WWDG_ClearFlag), (12 bytes).
    Removing stm32f10x_wwdg.o(i.WWDG_DeInit), (22 bytes).
    Removing stm32f10x_wwdg.o(i.WWDG_Enable), (16 bytes).
    Removing stm32f10x_wwdg.o(i.WWDG_EnableIT), (12 bytes).
    Removing stm32f10x_wwdg.o(i.WWDG_GetFlagStatus), (12 bytes).
    Removing stm32f10x_wwdg.o(i.WWDG_SetCounter), (16 bytes).
    Removing stm32f10x_wwdg.o(i.WWDG_SetPrescaler), (24 bytes).
    Removing stm32f10x_wwdg.o(i.WWDG_SetWindowValue), (40 bytes).
    Removing cdh_fun_stm32.o(i.GPIO_Set_Bit), (30 bytes).
    Removing data_helper.o(i.float_to_str), (36 bytes).
    Removing data_helper.o(i.int_to_str), (24 bytes).
    Removing data_helper.o(i.str_to_float), (14 bytes).
    Removing data_helper.o(i.str_to_int), (16 bytes).
    Removing cjson.o(i.cJSON_AddArrayToObject), (48 bytes).
    Removing cjson.o(i.cJSON_AddBoolToObject), (52 bytes).
    Removing cjson.o(i.cJSON_AddFalseToObject), (48 bytes).
    Removing cjson.o(i.cJSON_AddItemReferenceToArray), (36 bytes).
    Removing cjson.o(i.cJSON_AddItemReferenceToObject), (48 bytes).
    Removing cjson.o(i.cJSON_AddItemToArray), (16 bytes).
    Removing cjson.o(i.cJSON_AddItemToObject), (32 bytes).
    Removing cjson.o(i.cJSON_AddItemToObjectCS), (32 bytes).
    Removing cjson.o(i.cJSON_AddNullToObject), (48 bytes).
    Removing cjson.o(i.cJSON_AddObjectToObject), (48 bytes).
    Removing cjson.o(i.cJSON_AddRawToObject), (52 bytes).
    Removing cjson.o(i.cJSON_AddStringToObject), (52 bytes).
    Removing cjson.o(i.cJSON_AddTrueToObject), (48 bytes).
    Removing cjson.o(i.cJSON_Compare), (384 bytes).
    Removing cjson.o(i.cJSON_CreateArray), (24 bytes).
    Removing cjson.o(i.cJSON_CreateArrayReference), (36 bytes).
    Removing cjson.o(i.cJSON_CreateBool), (32 bytes).
    Removing cjson.o(i.cJSON_CreateDoubleArray), (106 bytes).
    Removing cjson.o(i.cJSON_CreateFalse), (24 bytes).
    Removing cjson.o(i.cJSON_CreateFloatArray), (110 bytes).
    Removing cjson.o(i.cJSON_CreateIntArray), (110 bytes).
    Removing cjson.o(i.cJSON_CreateNull), (24 bytes).
    Removing cjson.o(i.cJSON_CreateObjectReference), (36 bytes).
    Removing cjson.o(i.cJSON_CreateRaw), (52 bytes).
    Removing cjson.o(i.cJSON_CreateString), (52 bytes).
    Removing cjson.o(i.cJSON_CreateStringArray), (100 bytes).
    Removing cjson.o(i.cJSON_CreateStringReference), (36 bytes).
    Removing cjson.o(i.cJSON_CreateTrue), (24 bytes).
    Removing cjson.o(i.cJSON_DeleteItemFromArray), (22 bytes).
    Removing cjson.o(i.cJSON_DeleteItemFromObject), (22 bytes).
    Removing cjson.o(i.cJSON_DeleteItemFromObjectCaseSensitive), (22 bytes).
    Removing cjson.o(i.cJSON_DetachItemFromArray), (34 bytes).
    Removing cjson.o(i.cJSON_DetachItemFromObject), (26 bytes).
    Removing cjson.o(i.cJSON_DetachItemFromObjectCaseSensitive), (26 bytes).
    Removing cjson.o(i.cJSON_DetachItemViaPointer), (64 bytes).
    Removing cjson.o(i.cJSON_Duplicate), (192 bytes).
    Removing cjson.o(i.cJSON_GetArrayItem), (24 bytes).
    Removing cjson.o(i.cJSON_GetArraySize), (28 bytes).
    Removing cjson.o(i.cJSON_GetErrorPtr), (16 bytes).
    Removing cjson.o(i.cJSON_GetNumberValue), (28 bytes).
    Removing cjson.o(i.cJSON_GetObjectItemCaseSensitive), (18 bytes).
    Removing cjson.o(i.cJSON_GetStringValue), (20 bytes).
    Removing cjson.o(i.cJSON_HasObjectItem), (24 bytes).
    Removing cjson.o(i.cJSON_InitHooks), (100 bytes).
    Removing cjson.o(i.cJSON_InsertItemInArray), (70 bytes).
    Removing cjson.o(i.cJSON_IsArray), (22 bytes).
    Removing cjson.o(i.cJSON_IsBool), (24 bytes).
    Removing cjson.o(i.cJSON_IsFalse), (20 bytes).
    Removing cjson.o(i.cJSON_IsInvalid), (20 bytes).
    Removing cjson.o(i.cJSON_IsNull), (22 bytes).
    Removing cjson.o(i.cJSON_IsNumber), (22 bytes).
    Removing cjson.o(i.cJSON_IsObject), (22 bytes).
    Removing cjson.o(i.cJSON_IsRaw), (22 bytes).
    Removing cjson.o(i.cJSON_IsString), (22 bytes).
    Removing cjson.o(i.cJSON_IsTrue), (22 bytes).
    Removing cjson.o(i.cJSON_Minify), (154 bytes).
    Removing cjson.o(i.cJSON_ParseWithLength), (20 bytes).
    Removing cjson.o(i.cJSON_PrintBuffered), (96 bytes).
    Removing cjson.o(i.cJSON_PrintPreallocated), (68 bytes).
    Removing cjson.o(i.cJSON_PrintUnformatted), (20 bytes).
    Removing cjson.o(i.cJSON_ReplaceItemInArray), (42 bytes).
    Removing cjson.o(i.cJSON_ReplaceItemInObject), (22 bytes).
    Removing cjson.o(i.cJSON_ReplaceItemInObjectCaseSensitive), (22 bytes).
    Removing cjson.o(i.cJSON_ReplaceItemViaPointer), (96 bytes).
    Removing cjson.o(i.cJSON_SetNumberHelper), (84 bytes).
    Removing cjson.o(i.cJSON_SetValuestring), (100 bytes).
    Removing cjson.o(i.cJSON_Version), (40 bytes).
    Removing cjson.o(i.cJSON_malloc), (20 bytes).
    Removing cjson.o(i.create_reference), (60 bytes).
    Removing cjson.o(i.get_array_item), (30 bytes).
    Removing cjson.o(i.minify_string), (116 bytes).
    Removing cjson.o(i.replace_item_in_object), (96 bytes).
    Removing cjson.o(i.skip_multiline_comment), (50 bytes).
    Removing cjson.o(i.skip_oneline_comment), (42 bytes).
    Removing cjson.o(.bss), (15 bytes).
    Removing systick.o(i.DelayUs), (68 bytes).
    Removing task.o(i.Task3), (28 bytes).
    Removing task.o(i.Task4), (28 bytes).
    Removing usart.o(i.USART5_RecProcess), (64 bytes).
    Removing usart.o(i.init_uart5), (184 bytes).
    Removing usart.o(i.usart_init_12345), (50 bytes).
    Removing timer.o(i.PWM_TIM3_Init), (148 bytes).
    Removing timer.o(i.SetTIM3PWMCompare), (28 bytes).
    Removing adc.o(i.Get_Adc1_Average), (46 bytes).
    Removing adc.o(i.Get_adc1), (52 bytes).
    Removing adc.o(i.adc1_init), (140 bytes).
    Removing goods.o(i.Add_Goods), (16 bytes).
    Removing goods.o(i.Goods_Init), (76 bytes).
    Removing user.o(i.Add_User), (16 bytes).
    Removing user.o(i.Get_user_uaer), (2 bytes).
    Removing user.o(i.Init_User), (92 bytes).
    Removing openmv.o(i.Get_num), (8 bytes).
    Removing spi.o(i.SPI2_Init), (148 bytes).
    Removing spi.o(i.SPI2_ReadWriteByte), (84 bytes).
    Removing spi.o(i.SPI2_SetSpeed), (40 bytes).
    Removing w25qxx.o(i.W25QXX_Erase_Chip), (44 bytes).
    Removing w25qxx.o(i.W25QXX_Erase_Sector), (72 bytes).
    Removing w25qxx.o(i.W25QXX_Init), (88 bytes).
    Removing w25qxx.o(i.W25QXX_PowerDown), (40 bytes).
    Removing w25qxx.o(i.W25QXX_Read), (80 bytes).
    Removing w25qxx.o(i.W25QXX_ReadID), (72 bytes).
    Removing w25qxx.o(i.W25QXX_ReadSR), (44 bytes).
    Removing w25qxx.o(i.W25QXX_WAKEUP), (40 bytes).
    Removing w25qxx.o(i.W25QXX_Wait_Busy), (18 bytes).
    Removing w25qxx.o(i.W25QXX_Write), (184 bytes).
    Removing w25qxx.o(i.W25QXX_Write_Disable), (32 bytes).
    Removing w25qxx.o(i.W25QXX_Write_Enable), (32 bytes).
    Removing w25qxx.o(i.W25QXX_Write_NoCheck), (70 bytes).
    Removing w25qxx.o(i.W25QXX_Write_Page), (84 bytes).
    Removing w25qxx.o(i.W25QXX_Write_SR), (40 bytes).
    Removing w25qxx.o(.bss), (4096 bytes).
    Removing w25qxx.o(.data), (2 bytes).
    Removing scancode.o(i.getCodePage), (12 bytes).
    Removing scancode.o(i.getScanCode), (8 bytes).
    Removing led.o(i.InitLed), (120 bytes).
    Removing led.o(i.SetLedState), (88 bytes).

575 unused section(s) (total 28389 bytes) removed from the image.

==============================================================================

Image Symbol Table

    Local Symbols

    Symbol Name                              Value     Ov Type        Size  Object(Section)

    ../clib/microlib/ctype/ctype.c           0x00000000   Number         0  isgraph_o.o ABSOLUTE
    ../clib/microlib/ctype/ctype.c           0x00000000   Number         0  ctype_o.o ABSOLUTE
    ../clib/microlib/ctype/ctype.c           0x00000000   Number         0  isalnum_o.o ABSOLUTE
    ../clib/microlib/ctype/ctype.c           0x00000000   Number         0  isalpha_o.o ABSOLUTE
    ../clib/microlib/ctype/ctype.c           0x00000000   Number         0  isprint_o.o ABSOLUTE
    ../clib/microlib/ctype/ctype.c           0x00000000   Number         0  islower_o.o ABSOLUTE
    ../clib/microlib/ctype/ctype.c           0x00000000   Number         0  isblank_o.o ABSOLUTE
    ../clib/microlib/ctype/ctype.c           0x00000000   Number         0  iscntrl_o.o ABSOLUTE
    ../clib/microlib/ctype/ctype.c           0x00000000   Number         0  isdigit_o.o ABSOLUTE
    ../clib/microlib/ctype/ctype.c           0x00000000   Number         0  ispunct_o.o ABSOLUTE
    ../clib/microlib/ctype/ctype.c           0x00000000   Number         0  isspace_o.o ABSOLUTE
    ../clib/microlib/ctype/ctype.c           0x00000000   Number         0  isupper_o.o ABSOLUTE
    ../clib/microlib/ctype/ctype.c           0x00000000   Number         0  isxdigit_o.o ABSOLUTE
    ../clib/microlib/ctype/ctype.c           0x00000000   Number         0  isspace_c.o ABSOLUTE
    ../clib/microlib/ctype/ctype.c           0x00000000   Number         0  ctype_c.o ABSOLUTE
    ../clib/microlib/ctype/tolower.c         0x00000000   Number         0  tolower.o ABSOLUTE
    ../clib/microlib/division.c              0x00000000   Number         0  uldiv.o ABSOLUTE
    ../clib/microlib/division.c              0x00000000   Number         0  uidiv.o ABSOLUTE
    ../clib/microlib/errno.c                 0x00000000   Number         0  errno.o ABSOLUTE
    ../clib/microlib/init/entry.s            0x00000000   Number         0  entry11b.o ABSOLUTE
    ../clib/microlib/init/entry.s            0x00000000   Number         0  entry11a.o ABSOLUTE
    ../clib/microlib/init/entry.s            0x00000000   Number         0  entry10b.o ABSOLUTE
    ../clib/microlib/init/entry.s            0x00000000   Number         0  entry10a.o ABSOLUTE
    ../clib/microlib/init/entry.s            0x00000000   Number         0  entry9b.o ABSOLUTE
    ../clib/microlib/init/entry.s            0x00000000   Number         0  entry9a.o ABSOLUTE
    ../clib/microlib/init/entry.s            0x00000000   Number         0  entry8b.o ABSOLUTE
    ../clib/microlib/init/entry.s            0x00000000   Number         0  entry8a.o ABSOLUTE
    ../clib/microlib/init/entry.s            0x00000000   Number         0  entry7b.o ABSOLUTE
    ../clib/microlib/init/entry.s            0x00000000   Number         0  entry7a.o ABSOLUTE
    ../clib/microlib/init/entry.s            0x00000000   Number         0  entry.o ABSOLUTE
    ../clib/microlib/init/entry.s            0x00000000   Number         0  entry5.o ABSOLUTE
    ../clib/microlib/init/entry.s            0x00000000   Number         0  entry2.o ABSOLUTE
    ../clib/microlib/longlong.c              0x00000000   Number         0  llsshr.o ABSOLUTE
    ../clib/microlib/longlong.c              0x00000000   Number         0  llshl.o ABSOLUTE
    ../clib/microlib/longlong.c              0x00000000   Number         0  llushr.o ABSOLUTE
    ../clib/microlib/malloc/malloc.c         0x00000000   Number         0  mallocra.o ABSOLUTE
    ../clib/microlib/malloc/malloc.c         0x00000000   Number         0  malloca.o ABSOLUTE
    ../clib/microlib/malloc/malloc.c         0x00000000   Number         0  malloc.o ABSOLUTE
    ../clib/microlib/malloc/malloc.c         0x00000000   Number         0  mallocr.o ABSOLUTE
    ../clib/microlib/malloc/mvars.c          0x00000000   Number         0  mvars.o ABSOLUTE
    ../clib/microlib/printf/printf.c         0x00000000   Number         0  printf1.o ABSOLUTE
    ../clib/microlib/printf/printf.c         0x00000000   Number         0  printf0.o ABSOLUTE
    ../clib/microlib/printf/printf.c         0x00000000   Number         0  printf7.o ABSOLUTE
    ../clib/microlib/printf/printf.c         0x00000000   Number         0  printfb.o ABSOLUTE
    ../clib/microlib/printf/printf.c         0x00000000   Number         0  printfa.o ABSOLUTE
    ../clib/microlib/printf/printf.c         0x00000000   Number         0  printf8.o ABSOLUTE
    ../clib/microlib/printf/printf.c         0x00000000   Number         0  printf6.o ABSOLUTE
    ../clib/microlib/printf/printf.c         0x00000000   Number         0  printf5.o ABSOLUTE
    ../clib/microlib/printf/printf.c         0x00000000   Number         0  printf4.o ABSOLUTE
    ../clib/microlib/printf/printf.c         0x00000000   Number         0  printf3.o ABSOLUTE
    ../clib/microlib/printf/printf.c         0x00000000   Number         0  printf2.o ABSOLUTE
    ../clib/microlib/printf/stubs.s          0x00000000   Number         0  stubs.o ABSOLUTE
    ../clib/microlib/stdio/streams.c         0x00000000   Number         0  stdout.o ABSOLUTE
    ../clib/microlib/string/memcpy.c         0x00000000   Number         0  memcpya.o ABSOLUTE
    ../clib/microlib/string/memcpy.c         0x00000000   Number         0  memcpyb.o ABSOLUTE
    ../clib/microlib/string/memset.c         0x00000000   Number         0  memseta.o ABSOLUTE
    ../clib/microlib/string/strcat.c         0x00000000   Number         0  strcat.o ABSOLUTE
    ../clib/microlib/string/strcmp.c         0x00000000   Number         0  strcmp.o ABSOLUTE
    ../clib/microlib/string/strcpy.c         0x00000000   Number         0  strcpy.o ABSOLUTE
    ../clib/microlib/string/strlen.c         0x00000000   Number         0  strlen.o ABSOLUTE
    ../clib/microlib/string/strncmp.c        0x00000000   Number         0  strncmp.o ABSOLUTE
    ../clib/microlib/stubs.s                 0x00000000   Number         0  iusefp.o ABSOLUTE
    ../clib/scanf.c                          0x00000000   Number         0  _scanf.o ABSOLUTE
    ../clib/scanf.c                          0x00000000   Number         0  strtol.o ABSOLUTE
    ../clib/scanf.c                          0x00000000   Number         0  _strtoul.o ABSOLUTE
    ../clib/scanf.c                          0x00000000   Number         0  strtod.o ABSOLUTE
    ../clib/scanf.c                          0x00000000   Number         0  scanf_char.o ABSOLUTE
    ../clib/scanf.c                          0x00000000   Number         0  __0sscanf.o ABSOLUTE
    ../clib/scanf.c                          0x00000000   Number         0  _chval.o ABSOLUTE
    ../clib/scanf.c                          0x00000000   Number         0  scanf_fp.o ABSOLUTE
    ../clib/scanf.c                          0x00000000   Number         0  _sgetc.o ABSOLUTE
    ../fplib/microlib/d2f.c                  0x00000000   Number         0  d2f.o ABSOLUTE
    ../fplib/microlib/f2d.c                  0x00000000   Number         0  f2d.o ABSOLUTE
    ../fplib/microlib/fpadd.c                0x00000000   Number         0  dadd.o ABSOLUTE
    ../fplib/microlib/fpadd.c                0x00000000   Number         0  fadd.o ABSOLUTE
    ../fplib/microlib/fpdiv.c                0x00000000   Number         0  fdiv.o ABSOLUTE
    ../fplib/microlib/fpdiv.c                0x00000000   Number         0  ddiv.o ABSOLUTE
    ../fplib/microlib/fpepilogue.c           0x00000000   Number         0  fepilogue.o ABSOLUTE
    ../fplib/microlib/fpepilogue.c           0x00000000   Number         0  depilogue.o ABSOLUTE
    ../fplib/microlib/fpfix.c                0x00000000   Number         0  ffixui.o ABSOLUTE
    ../fplib/microlib/fpfix.c                0x00000000   Number         0  dfixi.o ABSOLUTE
    ../fplib/microlib/fpfix.c                0x00000000   Number         0  dfixul.o ABSOLUTE
    ../fplib/microlib/fpflt.c                0x00000000   Number         0  dfltui.o ABSOLUTE
    ../fplib/microlib/fpflt.c                0x00000000   Number         0  dflti.o ABSOLUTE
    ../fplib/microlib/fpflt.c                0x00000000   Number         0  fflti.o ABSOLUTE
    ../fplib/microlib/fpflt.c                0x00000000   Number         0  dfltul.o ABSOLUTE
    ../fplib/microlib/fpmul.c                0x00000000   Number         0  dmul.o ABSOLUTE
    ../fplib/microlib/fpmul.c                0x00000000   Number         0  fmul.o ABSOLUTE
    ../mathlib/strtod.c                      0x00000000   Number         0  strtod.o ABSOLUTE
    ../mathlib/strtof.c                      0x00000000   Number         0  strtof.o ABSOLUTE
    ..\Libraries\CMSIS\core_cm3.c            0x00000000   Number         0  core_cm3.o ABSOLUTE
    ..\Libraries\CMSIS\startup\startup_stm32f10x_hd.s 0x00000000   Number         0  startup_stm32f10x_hd.o ABSOLUTE
    ..\Libraries\CMSIS\system_stm32f10x.c    0x00000000   Number         0  system_stm32f10x.o ABSOLUTE
    ..\Libraries\FWlib\src\misc.c            0x00000000   Number         0  misc.o ABSOLUTE
    ..\Libraries\FWlib\src\stm32f10x_adc.c   0x00000000   Number         0  stm32f10x_adc.o ABSOLUTE
    ..\Libraries\FWlib\src\stm32f10x_bkp.c   0x00000000   Number         0  stm32f10x_bkp.o ABSOLUTE
    ..\Libraries\FWlib\src\stm32f10x_can.c   0x00000000   Number         0  stm32f10x_can.o ABSOLUTE
    ..\Libraries\FWlib\src\stm32f10x_cec.c   0x00000000   Number         0  stm32f10x_cec.o ABSOLUTE
    ..\Libraries\FWlib\src\stm32f10x_crc.c   0x00000000   Number         0  stm32f10x_crc.o ABSOLUTE
    ..\Libraries\FWlib\src\stm32f10x_dac.c   0x00000000   Number         0  stm32f10x_dac.o ABSOLUTE
    ..\Libraries\FWlib\src\stm32f10x_dbgmcu.c 0x00000000   Number         0  stm32f10x_dbgmcu.o ABSOLUTE
    ..\Libraries\FWlib\src\stm32f10x_dma.c   0x00000000   Number         0  stm32f10x_dma.o ABSOLUTE
    ..\Libraries\FWlib\src\stm32f10x_exti.c  0x00000000   Number         0  stm32f10x_exti.o ABSOLUTE
    ..\Libraries\FWlib\src\stm32f10x_flash.c 0x00000000   Number         0  stm32f10x_flash.o ABSOLUTE
    ..\Libraries\FWlib\src\stm32f10x_fsmc.c  0x00000000   Number         0  stm32f10x_fsmc.o ABSOLUTE
    ..\Libraries\FWlib\src\stm32f10x_gpio.c  0x00000000   Number         0  stm32f10x_gpio.o ABSOLUTE
    ..\Libraries\FWlib\src\stm32f10x_i2c.c   0x00000000   Number         0  stm32f10x_i2c.o ABSOLUTE
    ..\Libraries\FWlib\src\stm32f10x_iwdg.c  0x00000000   Number         0  stm32f10x_iwdg.o ABSOLUTE
    ..\Libraries\FWlib\src\stm32f10x_pwr.c   0x00000000   Number         0  stm32f10x_pwr.o ABSOLUTE
    ..\Libraries\FWlib\src\stm32f10x_rcc.c   0x00000000   Number         0  stm32f10x_rcc.o ABSOLUTE
    ..\Libraries\FWlib\src\stm32f10x_rtc.c   0x00000000   Number         0  stm32f10x_rtc.o ABSOLUTE
    ..\Libraries\FWlib\src\stm32f10x_sdio.c  0x00000000   Number         0  stm32f10x_sdio.o ABSOLUTE
    ..\Libraries\FWlib\src\stm32f10x_spi.c   0x00000000   Number         0  stm32f10x_spi.o ABSOLUTE
    ..\Libraries\FWlib\src\stm32f10x_tim.c   0x00000000   Number         0  stm32f10x_tim.o ABSOLUTE
    ..\Libraries\FWlib\src\stm32f10x_usart.c 0x00000000   Number         0  stm32f10x_usart.o ABSOLUTE
    ..\Libraries\FWlib\src\stm32f10x_wwdg.c  0x00000000   Number         0  stm32f10x_wwdg.o ABSOLUTE
    ..\Source\Cdh_stm32\cJSON.c              0x00000000   Number         0  cjson.o ABSOLUTE
    ..\Source\Cdh_stm32\cdh_fun_stm32.c      0x00000000   Number         0  cdh_fun_stm32.o ABSOLUTE
    ..\Source\Cdh_stm32\data_helper.c        0x00000000   Number         0  data_helper.o ABSOLUTE
    ..\Source\DataGoods\Goods.c              0x00000000   Number         0  goods.o ABSOLUTE
    ..\Source\DataGoods\User.c               0x00000000   Number         0  user.o ABSOLUTE
    ..\Source\Dev\adc.c                      0x00000000   Number         0  adc.o ABSOLUTE
    ..\Source\Dev\timer.c                    0x00000000   Number         0  timer.o ABSOLUTE
    ..\Source\Dev\usart.c                    0x00000000   Number         0  usart.o ABSOLUTE
    ..\Source\Main\main.c                    0x00000000   Number         0  main.o ABSOLUTE
    ..\Source\Main\stm32f10x_it.c            0x00000000   Number         0  stm32f10x_it.o ABSOLUTE
    ..\Source\Payment\Openmv.c               0x00000000   Number         0  openmv.o ABSOLUTE
    ..\Source\Payment\ScanCode.c             0x00000000   Number         0  scancode.o ABSOLUTE
    ..\Source\Payment\Servo.c                0x00000000   Number         0  servo.o ABSOLUTE
    ..\Source\Payment\Uasrttft.c             0x00000000   Number         0  uasrttft.o ABSOLUTE
    ..\Source\Payment\order.c                0x00000000   Number         0  order.o ABSOLUTE
    ..\Source\Payment\spi.c                  0x00000000   Number         0  spi.o ABSOLUTE
    ..\Source\Payment\w25qxx.c               0x00000000   Number         0  w25qxx.o ABSOLUTE
    ..\Source\System\system.c                0x00000000   Number         0  system.o ABSOLUTE
    ..\Source\System\systick.c               0x00000000   Number         0  systick.o ABSOLUTE
    ..\Source\System\task.c                  0x00000000   Number         0  task.o ABSOLUTE
    ..\Source\Use\led.c                      0x00000000   Number         0  led.o ABSOLUTE
    ..\\Libraries\\CMSIS\\core_cm3.c         0x00000000   Number         0  core_cm3.o ABSOLUTE
    cdcmple.s                                0x00000000   Number         0  cdcmple.o ABSOLUTE
    cdrcmple.s                               0x00000000   Number         0  cdrcmple.o ABSOLUTE
    dc.s                                     0x00000000   Number         0  dc.o ABSOLUTE
    handlers.s                               0x00000000   Number         0  handlers.o ABSOLUTE
    init.s                                   0x00000000   Number         0  init.o ABSOLUTE
    RESET                                    0x08000000   Section      304  startup_stm32f10x_hd.o(RESET)
    .ARM.Collect$$$$00000000                 0x08000130   Section        0  entry.o(.ARM.Collect$$$$00000000)
    .ARM.Collect$$$$00000001                 0x08000130   Section        4  entry2.o(.ARM.Collect$$$$00000001)
    .ARM.Collect$$$$00000004                 0x08000134   Section        4  entry5.o(.ARM.Collect$$$$00000004)
    .ARM.Collect$$$$00000008                 0x08000138   Section        0  entry7b.o(.ARM.Collect$$$$00000008)
    .ARM.Collect$$$$0000000A                 0x08000138   Section        0  entry8b.o(.ARM.Collect$$$$0000000A)
    .ARM.Collect$$$$0000000B                 0x08000138   Section        8  entry9a.o(.ARM.Collect$$$$0000000B)
    .ARM.Collect$$$$0000000D                 0x08000140   Section        0  entry10a.o(.ARM.Collect$$$$0000000D)
    .ARM.Collect$$$$0000000F                 0x08000140   Section        0  entry11a.o(.ARM.Collect$$$$0000000F)
    .ARM.Collect$$$$00002712                 0x08000140   Section        4  entry2.o(.ARM.Collect$$$$00002712)
    __lit__00000000                          0x08000140   Data           4  entry2.o(.ARM.Collect$$$$00002712)
    .text                                    0x08000144   Section       36  startup_stm32f10x_hd.o(.text)
    .text                                    0x08000168   Section        0  tolower.o(.text)
    .text                                    0x08000174   Section        0  memcpya.o(.text)
    .text                                    0x08000198   Section        0  memseta.o(.text)
    .text                                    0x080001bc   Section        0  strcat.o(.text)
    .text                                    0x080001d4   Section        0  strlen.o(.text)
    .text                                    0x080001e2   Section        0  strcmp.o(.text)
    .text                                    0x080001fe   Section        0  strcpy.o(.text)
    .text                                    0x08000210   Section        0  strncmp.o(.text)
    .text                                    0x08000230   Section        0  __0sscanf.o(.text)
    .text                                    0x08000268   Section        0  scanf_fp.o(.text)
    _fp_value                                0x08000269   Thumb Code   256  scanf_fp.o(.text)
    .text                                    0x080005a0   Section        0  fadd.o(.text)
    .text                                    0x08000650   Section        0  fmul.o(.text)
    .text                                    0x080006b4   Section        0  fdiv.o(.text)
    .text                                    0x08000730   Section        0  dadd.o(.text)
    .text                                    0x0800087e   Section        0  dmul.o(.text)
    .text                                    0x08000962   Section        0  fflti.o(.text)
    .text                                    0x08000974   Section        0  dflti.o(.text)
    .text                                    0x08000996   Section        0  dfltui.o(.text)
    .text                                    0x080009b0   Section        0  ffixui.o(.text)
    .text                                    0x080009d8   Section        0  dfixi.o(.text)
    .text                                    0x08000a16   Section        0  f2d.o(.text)
    .text                                    0x08000a3c   Section       48  cdcmple.o(.text)
    .text                                    0x08000a6c   Section       48  cdrcmple.o(.text)
    .text                                    0x08000a9c   Section        0  d2f.o(.text)
    .text                                    0x08000ad4   Section        0  uidiv.o(.text)
    .text                                    0x08000b00   Section        0  uldiv.o(.text)
    .text                                    0x08000b62   Section        0  llshl.o(.text)
    .text                                    0x08000b80   Section        0  llushr.o(.text)
    .text                                    0x08000ba0   Section        0  llsshr.o(.text)
    .text                                    0x08000bc4   Section        0  ctype_o.o(.text)
    .text                                    0x08000bcc   Section        0  isspace_o.o(.text)
    .text                                    0x08000be0   Section        0  scanf_char.o(.text)
    _scanf_char_input                        0x08000be1   Thumb Code    12  scanf_char.o(.text)
    .text                                    0x08000c08   Section        0  _sgetc.o(.text)
    .text                                    0x08000c48   Section        0  strtod.o(.text)
    _local_sscanf                            0x08000c49   Thumb Code    54  strtod.o(.text)
    .text                                    0x08000ce4   Section        0  iusefp.o(.text)
    .text                                    0x08000ce4   Section        0  fepilogue.o(.text)
    .text                                    0x08000d52   Section        0  depilogue.o(.text)
    .text                                    0x08000e0c   Section        0  ddiv.o(.text)
    .text                                    0x08000eea   Section        0  dfltul.o(.text)
    .text                                    0x08000f02   Section        0  dfixul.o(.text)
    .text                                    0x08000f34   Section       36  init.o(.text)
    .text                                    0x08000f58   Section        0  _scanf.o(.text)
    i.BusFault_Handler                       0x08001284   Section        0  stm32f10x_it.o(i.BusFault_Handler)
    i.CalculateIndent                        0x08001288   Section        0  scancode.o(i.CalculateIndent)
    i.DebugMon_Handler                       0x080014e8   Section        0  stm32f10x_it.o(i.DebugMon_Handler)
    i.DelayMs                                0x080014ec   Section        0  systick.o(i.DelayMs)
    i.DisposeReturnData                      0x08001500   Section        0  openmv.o(i.DisposeReturnData)
    i.DisposeUsartTTFT                       0x0800150c   Section        0  uasrttft.o(i.DisposeUsartTTFT)
    i.Door_OFF                               0x080015d4   Section        0  servo.o(i.Door_OFF)
    i.Door_ON                                0x080015e4   Section        0  servo.o(i.Door_ON)
    i.GPIO_Init                              0x080015ee   Section        0  stm32f10x_gpio.o(i.GPIO_Init)
    i.HardFault_Handler                      0x08001704   Section        0  stm32f10x_it.o(i.HardFault_Handler)
    i.MemManage_Handler                      0x08001708   Section        0  stm32f10x_it.o(i.MemManage_Handler)
    i.NMI_Handler                            0x0800170c   Section        0  stm32f10x_it.o(i.NMI_Handler)
    i.NVIC_Init                              0x08001710   Section        0  misc.o(i.NVIC_Init)
    i.NVIC_PriorityGroupConfig               0x08001780   Section        0  misc.o(i.NVIC_PriorityGroupConfig)
    i.PendSV_Handler                         0x08001794   Section        0  stm32f10x_it.o(i.PendSV_Handler)
    i.RCC_APB1PeriphClockCmd                 0x08001798   Section        0  stm32f10x_rcc.o(i.RCC_APB1PeriphClockCmd)
    i.RCC_APB2PeriphClockCmd                 0x080017b8   Section        0  stm32f10x_rcc.o(i.RCC_APB2PeriphClockCmd)
    i.RCC_GetClocksFreq                      0x080017d8   Section        0  stm32f10x_rcc.o(i.RCC_GetClocksFreq)
    i.RunAllTask                             0x080018ac   Section        0  main.o(i.RunAllTask)
    i.SVC_Handler                            0x080018c8   Section        0  stm32f10x_it.o(i.SVC_Handler)
    i.Save_Goods_falsh                       0x080018cc   Section        0  goods.o(i.Save_Goods_falsh)
    i.Save_user_falsh                        0x08001b28   Section        0  user.o(i.Save_user_falsh)
    i.Servo_Init                             0x08001b70   Section        0  servo.o(i.Servo_Init)
    i.Servo_angle                            0x08001c08   Section        0  servo.o(i.Servo_angle)
    i.SetSysClock                            0x08001c48   Section        0  system_stm32f10x.o(i.SetSysClock)
    SetSysClock                              0x08001c49   Thumb Code     8  system_stm32f10x.o(i.SetSysClock)
    i.SetSysClockTo72                        0x08001c50   Section        0  system_stm32f10x.o(i.SetSysClockTo72)
    SetSysClockTo72                          0x08001c51   Thumb Code   214  system_stm32f10x.o(i.SetSysClockTo72)
    i.Startbill                              0x08001d30   Section        0  scancode.o(i.Startbill)
    i.SysInit                                0x08001d6c   Section        0  system.o(i.SysInit)
    i.SysTick_Handler                        0x08001d84   Section        0  systick.o(i.SysTick_Handler)
    i.SystemInit                             0x08001db0   Section        0  system_stm32f10x.o(i.SystemInit)
    i.SystickInit                            0x08001e10   Section        0  systick.o(i.SystickInit)
    i.TIM_Cmd                                0x08001e80   Section        0  stm32f10x_tim.o(i.TIM_Cmd)
    i.TIM_InternalClockConfig                0x08001e98   Section        0  stm32f10x_tim.o(i.TIM_InternalClockConfig)
    i.TIM_OC2Init                            0x08001ea4   Section        0  stm32f10x_tim.o(i.TIM_OC2Init)
    i.TIM_OCStructInit                       0x08001f48   Section        0  stm32f10x_tim.o(i.TIM_OCStructInit)
    i.TIM_SetCompare2                        0x08001f5c   Section        0  stm32f10x_tim.o(i.TIM_SetCompare2)
    i.TIM_TimeBaseInit                       0x08001f60   Section        0  stm32f10x_tim.o(i.TIM_TimeBaseInit)
    i.Task1                                  0x08002004   Section        0  task.o(i.Task1)
    i.Task2                                  0x08002048   Section        0  task.o(i.Task2)
    i.UART4_IRQHandler                       0x08002074   Section        0  usart.o(i.UART4_IRQHandler)
    i.UART4_RecProcess                       0x080020c0   Section        0  usart.o(i.UART4_RecProcess)
    i.UART5_IRQHandler                       0x08002108   Section        0  usart.o(i.UART5_IRQHandler)
    i.USART1_IRQHandler                      0x08002154   Section        0  usart.o(i.USART1_IRQHandler)
    i.USART1_RecProcess                      0x080021a0   Section        0  usart.o(i.USART1_RecProcess)
    i.USART2_IRQHandler                      0x080021e8   Section        0  usart.o(i.USART2_IRQHandler)
    i.USART2_RecProcess                      0x08002234   Section        0  usart.o(i.USART2_RecProcess)
    i.USART3_IRQHandler                      0x0800227c   Section        0  usart.o(i.USART3_IRQHandler)
    i.USART3_RecProcess                      0x080022c8   Section        0  usart.o(i.USART3_RecProcess)
    i.USART_ClearFlag                        0x08002310   Section        0  stm32f10x_usart.o(i.USART_ClearFlag)
    i.USART_ClearITPendingBit                0x08002322   Section        0  stm32f10x_usart.o(i.USART_ClearITPendingBit)
    i.USART_Cmd                              0x08002340   Section        0  stm32f10x_usart.o(i.USART_Cmd)
    i.USART_GetFlagStatus                    0x08002358   Section        0  stm32f10x_usart.o(i.USART_GetFlagStatus)
    i.USART_GetITStatus                      0x08002372   Section        0  stm32f10x_usart.o(i.USART_GetITStatus)
    i.USART_ITConfig                         0x080023c6   Section        0  stm32f10x_usart.o(i.USART_ITConfig)
    i.USART_Init                             0x08002410   Section        0  stm32f10x_usart.o(i.USART_Init)
    i.USART_ReceiveData                      0x080024e8   Section        0  stm32f10x_usart.o(i.USART_ReceiveData)
    i.USART_SendData                         0x080024f2   Section        0  stm32f10x_usart.o(i.USART_SendData)
    i.UpdateIndent                           0x080024fc   Section        0  scancode.o(i.UpdateIndent)
    i.UsageFault_Handler                     0x08002588   Section        0  stm32f10x_it.o(i.UsageFault_Handler)
    i.__0printf                              0x0800258c   Section        0  printfa.o(i.__0printf)
    i.__0snprintf                            0x080025ac   Section        0  printfa.o(i.__0snprintf)
    i.__0sprintf                             0x080025d4   Section        0  printfa.o(i.__0sprintf)
    i.__free$realloc                         0x080025fc   Section        0  mallocr.o(i.__free$realloc)
    i.__malloc$realloc                       0x08002658   Section        0  mallocr.o(i.__malloc$realloc)
    i.__scatterload_copy                     0x080026a8   Section       14  handlers.o(i.__scatterload_copy)
    i.__scatterload_null                     0x080026b6   Section        2  handlers.o(i.__scatterload_null)
    i.__scatterload_zeroinit                 0x080026b8   Section       14  handlers.o(i.__scatterload_zeroinit)
    i._fp_digits                             0x080026c8   Section        0  printfa.o(i._fp_digits)
    _fp_digits                               0x080026c9   Thumb Code   334  printfa.o(i._fp_digits)
    i._is_digit                              0x0800282c   Section        0  scanf_fp.o(i._is_digit)
    i._printf_core                           0x0800283c   Section        0  printfa.o(i._printf_core)
    _printf_core                             0x0800283d   Thumb Code  1744  printfa.o(i._printf_core)
    i._printf_post_padding                   0x08002f18   Section        0  printfa.o(i._printf_post_padding)
    _printf_post_padding                     0x08002f19   Thumb Code    36  printfa.o(i._printf_post_padding)
    i._printf_pre_padding                    0x08002f3c   Section        0  printfa.o(i._printf_pre_padding)
    _printf_pre_padding                      0x08002f3d   Thumb Code    46  printfa.o(i._printf_pre_padding)
    i._snputc                                0x08002f6a   Section        0  printfa.o(i._snputc)
    _snputc                                  0x08002f6b   Thumb Code    22  printfa.o(i._snputc)
    i._sputc                                 0x08002f80   Section        0  printfa.o(i._sputc)
    _sputc                                   0x08002f81   Thumb Code    10  printfa.o(i._sputc)
    i.add_item_to_array                      0x08002f8a   Section        0  cjson.o(i.add_item_to_array)
    add_item_to_array                        0x08002f8b   Thumb Code    54  cjson.o(i.add_item_to_array)
    i.add_item_to_object                     0x08002fc0   Section        0  cjson.o(i.add_item_to_object)
    add_item_to_object                       0x08002fc1   Thumb Code   122  cjson.o(i.add_item_to_object)
    i.buffer_skip_whitespace                 0x0800303a   Section        0  cjson.o(i.buffer_skip_whitespace)
    buffer_skip_whitespace                   0x0800303b   Thumb Code    72  cjson.o(i.buffer_skip_whitespace)
    i.cJSON_AddNumberToObject                0x08003084   Section        0  cjson.o(i.cJSON_AddNumberToObject)
    i.cJSON_CreateNumber                     0x080030c0   Section        0  cjson.o(i.cJSON_CreateNumber)
    i.cJSON_CreateObject                     0x08003124   Section        0  cjson.o(i.cJSON_CreateObject)
    i.cJSON_Delete                           0x0800313c   Section        0  cjson.o(i.cJSON_Delete)
    i.cJSON_GetObjectItem                    0x08003194   Section        0  cjson.o(i.cJSON_GetObjectItem)
    i.cJSON_New_Item                         0x080031a6   Section        0  cjson.o(i.cJSON_New_Item)
    cJSON_New_Item                           0x080031a7   Thumb Code    26  cjson.o(i.cJSON_New_Item)
    i.cJSON_Parse                            0x080031c0   Section        0  cjson.o(i.cJSON_Parse)
    i.cJSON_ParseWithLengthOpts              0x080031d0   Section        0  cjson.o(i.cJSON_ParseWithLengthOpts)
    i.cJSON_ParseWithOpts                    0x080032a4   Section        0  cjson.o(i.cJSON_ParseWithOpts)
    i.cJSON_Print                            0x080032cc   Section        0  cjson.o(i.cJSON_Print)
    i.cJSON_free                             0x080032e0   Section        0  cjson.o(i.cJSON_free)
    i.cJSON_strdup                           0x080032f4   Section        0  cjson.o(i.cJSON_strdup)
    cJSON_strdup                             0x080032f5   Thumb Code    56  cjson.o(i.cJSON_strdup)
    i.case_insensitive_strcmp                0x0800332c   Section        0  cjson.o(i.case_insensitive_strcmp)
    case_insensitive_strcmp                  0x0800332d   Thumb Code    72  cjson.o(i.case_insensitive_strcmp)
    i.cast_away_const                        0x08003374   Section        0  cjson.o(i.cast_away_const)
    cast_away_const                          0x08003375   Thumb Code     2  cjson.o(i.cast_away_const)
    i.change_discount                        0x08003378   Section        0  scancode.o(i.change_discount)
    i.compare_double                         0x08003384   Section        0  cjson.o(i.compare_double)
    compare_double                           0x08003385   Thumb Code   112  cjson.o(i.compare_double)
    i.ensure                                 0x080033f8   Section        0  cjson.o(i.ensure)
    ensure                                   0x080033f9   Thumb Code   184  cjson.o(i.ensure)
    i.fputc                                  0x080034b0   Section        0  usart.o(i.fputc)
    i.get_decimal_point                      0x080034d4   Section        0  cjson.o(i.get_decimal_point)
    get_decimal_point                        0x080034d5   Thumb Code     4  cjson.o(i.get_decimal_point)
    i.get_object_item                        0x080034d8   Section        0  cjson.o(i.get_object_item)
    get_object_item                          0x080034d9   Thumb Code    82  cjson.o(i.get_object_item)
    i.init_all                               0x0800352a   Section        0  main.o(i.init_all)
    i.init_indent                            0x08003560   Section        0  scancode.o(i.init_indent)
    i.init_uart4                             0x08003588   Section        0  usart.o(i.init_uart4)
    i.init_usart1                            0x08003640   Section        0  usart.o(i.init_usart1)
    i.init_usart2                            0x080036f0   Section        0  usart.o(i.init_usart2)
    i.init_usart3                            0x080037a4   Section        0  usart.o(i.init_usart3)
    i.internal_alloc                         0x0800385c   Section        0  mallocr.o(i.internal_alloc)
    internal_alloc                           0x0800385d   Thumb Code    76  mallocr.o(i.internal_alloc)
    i.is_CodeType                            0x080038ac   Section        0  scancode.o(i.is_CodeType)
    i.main                                   0x080038c8   Section        0  main.o(i.main)
    i.parse_array                            0x080038d8   Section        0  cjson.o(i.parse_array)
    parse_array                              0x080038d9   Thumb Code   248  cjson.o(i.parse_array)
    i.parse_hex4                             0x080039d0   Section        0  cjson.o(i.parse_hex4)
    parse_hex4                               0x080039d1   Thumb Code    90  cjson.o(i.parse_hex4)
    i.parse_number                           0x08003a2c   Section        0  cjson.o(i.parse_number)
    parse_number                             0x08003a2d   Thumb Code   298  cjson.o(i.parse_number)
    i.parse_object                           0x08003b64   Section        0  cjson.o(i.parse_object)
    parse_object                             0x08003b65   Thumb Code   318  cjson.o(i.parse_object)
    i.parse_string                           0x08003ca2   Section        0  cjson.o(i.parse_string)
    parse_string                             0x08003ca3   Thumb Code   396  cjson.o(i.parse_string)
    i.parse_value                            0x08003e30   Section        0  cjson.o(i.parse_value)
    parse_value                              0x08003e31   Thumb Code   290  cjson.o(i.parse_value)
    i.print                                  0x08003f6c   Section        0  cjson.o(i.print)
    print                                    0x08003f6d   Thumb Code   178  cjson.o(i.print)
    i.print_array                            0x0800401e   Section        0  cjson.o(i.print_array)
    print_array                              0x0800401f   Thumb Code   178  cjson.o(i.print_array)
    i.print_number                           0x080040d0   Section        0  cjson.o(i.print_number)
    print_number                             0x080040d1   Thumb Code   304  cjson.o(i.print_number)
    i.print_object                           0x08004224   Section        0  cjson.o(i.print_object)
    print_object                             0x08004225   Thumb Code   372  cjson.o(i.print_object)
    i.print_string                           0x08004398   Section        0  cjson.o(i.print_string)
    print_string                             0x08004399   Thumb Code    16  cjson.o(i.print_string)
    i.print_string_ptr                       0x080043a8   Section        0  cjson.o(i.print_string_ptr)
    print_string_ptr                         0x080043a9   Thumb Code   360  cjson.o(i.print_string_ptr)
    i.print_value                            0x0800451c   Section        0  cjson.o(i.print_value)
    print_value                              0x0800451d   Thumb Code   236  cjson.o(i.print_value)
    i.realloc                                0x08004620   Section        0  mallocr.o(i.realloc)
    i.receive_order                          0x0800468c   Section        0  order.o(i.receive_order)
    i.send_indent                            0x08004820   Section        0  uasrttft.o(i.send_indent)
    i.setCodePage                            0x08004994   Section        0  scancode.o(i.setCodePage)
    i.setReturnOpenmv                        0x080049a0   Section        0  uasrttft.o(i.setReturnOpenmv)
    i.setScanCode                            0x080049c8   Section        0  scancode.o(i.setScanCode)
    i.skip_utf8_bom                          0x080049e8   Section        0  cjson.o(i.skip_utf8_bom)
    skip_utf8_bom                            0x080049e9   Thumb Code    56  cjson.o(i.skip_utf8_bom)
    i.strart_face                            0x08004a24   Section        0  openmv.o(i.strart_face)
    i.strtod                                 0x08004a38   Section        0  strtod.o(i.strtod)
    i.suffix_object                          0x08004a54   Section        0  cjson.o(i.suffix_object)
    suffix_object                            0x08004a55   Thumb Code     6  cjson.o(i.suffix_object)
    i.update_code                            0x08004a5c   Section        0  order.o(i.update_code)
    i.update_offset                          0x08004ae4   Section        0  cjson.o(i.update_offset)
    update_offset                            0x08004ae5   Thumb Code    36  cjson.o(i.update_offset)
    i.usart_send_byte                        0x08004b08   Section        0  usart.o(i.usart_send_byte)
    i.usart_send_string                      0x08004b26   Section        0  usart.o(i.usart_send_string)
    i.utf16_literal_to_utf8                  0x08004b42   Section        0  cjson.o(i.utf16_literal_to_utf8)
    utf16_literal_to_utf8                    0x08004b43   Thumb Code   300  cjson.o(i.utf16_literal_to_utf8)
    .constdata                               0x08004c70   Section       16  task.o(.constdata)
    .constdata                               0x08004c80   Section      129  ctype_o.o(.constdata)
    .constdata                               0x08004d04   Section        4  ctype_o.o(.constdata)
    table                                    0x08004d04   Data           4  ctype_o.o(.constdata)
    .data                                    0x20000000   Section       20  stm32f10x_rcc.o(.data)
    APBAHBPrescTable                         0x20000000   Data          16  stm32f10x_rcc.o(.data)
    ADCPrescTable                            0x20000010   Data           4  stm32f10x_rcc.o(.data)
    .data                                    0x20000014   Section       20  cjson.o(.data)
    global_error                             0x20000014   Data           8  cjson.o(.data)
    global_hooks                             0x2000001c   Data          12  cjson.o(.data)
    .data                                    0x20000028   Section       10  usart.o(.data)
    .data                                    0x20000034   Section        4  goods.o(.data)
    .data                                    0x20000038   Section        4  user.o(.data)
    .data                                    0x2000003c   Section        3  uasrttft.o(.data)
    .data                                    0x2000003f   Section        1  scancode.o(.data)
    .data                                    0x20000040   Section        2  order.o(.data)
    .data                                    0x20000044   Section        4  stdout.o(.data)
    .data                                    0x20000048   Section        4  mvars.o(.data)
    .data                                    0x2000004c   Section        4  mvars.o(.data)
    .bss                                     0x20000050   Section       72  systick.o(.bss)
    .bss                                     0x20000098   Section     1280  usart.o(.bss)
    .bss                                     0x20000598   Section     3200  goods.o(.bss)
    .bss                                     0x20001218   Section      880  user.o(.bss)
    .bss                                     0x20001588   Section       32  uasrttft.o(.bss)
    .bss                                     0x200015a8   Section     7348  scancode.o(.bss)
    HEAP                                     0x20003260   Section     3840  startup_stm32f10x_hd.o(HEAP)
    STACK                                    0x20004160   Section     1024  startup_stm32f10x_hd.o(STACK)

    Global Symbols

    Symbol Name                              Value     Ov Type        Size  Object(Section)

    BuildAttributes$$THM_ISAv4$P$D$K$B$S$PE$A:L22UL41UL21$X:L11$S22US41US21$IEEE1$IW$USESV6$~STKCKD$USESV7$~SHL$OTIME$ROPI$IEEEJ$EBA8$MICROLIB$REQ8$PRES8$EABIv2 0x00000000   Number         0  anon$$obj.o ABSOLUTE
    __ARM_use_no_argv                        0x00000000   Number         0  main.o ABSOLUTE
    _printf_a                                0x00000000   Number         0  stubs.o ABSOLUTE
    _printf_c                                0x00000000   Number         0  stubs.o ABSOLUTE
    _printf_charcount                        0x00000000   Number         0  stubs.o ABSOLUTE
    _printf_d                                0x00000000   Number         0  stubs.o ABSOLUTE
    _printf_e                                0x00000000   Number         0  stubs.o ABSOLUTE
    _printf_f                                0x00000000   Number         0  stubs.o ABSOLUTE
    _printf_flags                            0x00000000   Number         0  stubs.o ABSOLUTE
    _printf_fp_dec                           0x00000000   Number         0  stubs.o ABSOLUTE
    _printf_fp_hex                           0x00000000   Number         0  stubs.o ABSOLUTE
    _printf_g                                0x00000000   Number         0  stubs.o ABSOLUTE
    _printf_i                                0x00000000   Number         0  stubs.o ABSOLUTE
    _printf_int_dec                          0x00000000   Number         0  stubs.o ABSOLUTE
    _printf_l                                0x00000000   Number         0  stubs.o ABSOLUTE
    _printf_lc                               0x00000000   Number         0  stubs.o ABSOLUTE
    _printf_ll                               0x00000000   Number         0  stubs.o ABSOLUTE
    _printf_lld                              0x00000000   Number         0  stubs.o ABSOLUTE
    _printf_lli                              0x00000000   Number         0  stubs.o ABSOLUTE
    _printf_llo                              0x00000000   Number         0  stubs.o ABSOLUTE
    _printf_llu                              0x00000000   Number         0  stubs.o ABSOLUTE
    _printf_llx                              0x00000000   Number         0  stubs.o ABSOLUTE
    _printf_longlong_dec                     0x00000000   Number         0  stubs.o ABSOLUTE
    _printf_longlong_hex                     0x00000000   Number         0  stubs.o ABSOLUTE
    _printf_longlong_oct                     0x00000000   Number         0  stubs.o ABSOLUTE
    _printf_ls                               0x00000000   Number         0  stubs.o ABSOLUTE
    _printf_mbtowc                           0x00000000   Number         0  stubs.o ABSOLUTE
    _printf_n                                0x00000000   Number         0  stubs.o ABSOLUTE
    _printf_o                                0x00000000   Number         0  stubs.o ABSOLUTE
    _printf_p                                0x00000000   Number         0  stubs.o ABSOLUTE
    _printf_percent                          0x00000000   Number         0  stubs.o ABSOLUTE
    _printf_pre_padding                      0x00000000   Number         0  stubs.o ABSOLUTE
    _printf_return_value                     0x00000000   Number         0  stubs.o ABSOLUTE
    _printf_s                                0x00000000   Number         0  stubs.o ABSOLUTE
    _printf_sizespec                         0x00000000   Number         0  stubs.o ABSOLUTE
    _printf_str                              0x00000000   Number         0  stubs.o ABSOLUTE
    _printf_truncate_signed                  0x00000000   Number         0  stubs.o ABSOLUTE
    _printf_truncate_unsigned                0x00000000   Number         0  stubs.o ABSOLUTE
    _printf_u                                0x00000000   Number         0  stubs.o ABSOLUTE
    _printf_wc                               0x00000000   Number         0  stubs.o ABSOLUTE
    _printf_wctomb                           0x00000000   Number         0  stubs.o ABSOLUTE
    _printf_widthprec                        0x00000000   Number         0  stubs.o ABSOLUTE
    _printf_x                                0x00000000   Number         0  stubs.o ABSOLUTE
    __cpp_initialize__aeabi_                  - Undefined Weak Reference
    __cxa_finalize                            - Undefined Weak Reference
    __decompress                              - Undefined Weak Reference
    _clock_init                               - Undefined Weak Reference
    _microlib_exit                            - Undefined Weak Reference
    _scanf_int                                - Undefined Weak Reference
    _scanf_longlong                           - Undefined Weak Reference
    _scanf_string                             - Undefined Weak Reference
    __Vectors_Size                           0x00000130   Number         0  startup_stm32f10x_hd.o ABSOLUTE
    __Vectors                                0x08000000   Data           4  startup_stm32f10x_hd.o(RESET)
    __Vectors_End                            0x08000130   Data           0  startup_stm32f10x_hd.o(RESET)
    __main                                   0x08000131   Thumb Code     0  entry.o(.ARM.Collect$$$$00000000)
    _main_stk                                0x08000131   Thumb Code     0  entry2.o(.ARM.Collect$$$$00000001)
    _main_scatterload                        0x08000135   Thumb Code     0  entry5.o(.ARM.Collect$$$$00000004)
    __main_after_scatterload                 0x08000139   Thumb Code     0  entry5.o(.ARM.Collect$$$$00000004)
    _main_clock                              0x08000139   Thumb Code     0  entry7b.o(.ARM.Collect$$$$00000008)
    _main_cpp_init                           0x08000139   Thumb Code     0  entry8b.o(.ARM.Collect$$$$0000000A)
    _main_init                               0x08000139   Thumb Code     0  entry9a.o(.ARM.Collect$$$$0000000B)
    __rt_final_cpp                           0x08000141   Thumb Code     0  entry10a.o(.ARM.Collect$$$$0000000D)
    __rt_final_exit                          0x08000141   Thumb Code     0  entry11a.o(.ARM.Collect$$$$0000000F)
    Reset_Handler                            0x08000145   Thumb Code     8  startup_stm32f10x_hd.o(.text)
    ADC1_2_IRQHandler                        0x0800015f   Thumb Code     0  startup_stm32f10x_hd.o(.text)
    ADC3_IRQHandler                          0x0800015f   Thumb Code     0  startup_stm32f10x_hd.o(.text)
    CAN1_RX1_IRQHandler                      0x0800015f   Thumb Code     0  startup_stm32f10x_hd.o(.text)
    CAN1_SCE_IRQHandler                      0x0800015f   Thumb Code     0  startup_stm32f10x_hd.o(.text)
    DMA1_Channel1_IRQHandler                 0x0800015f   Thumb Code     0  startup_stm32f10x_hd.o(.text)
    DMA1_Channel2_IRQHandler                 0x0800015f   Thumb Code     0  startup_stm32f10x_hd.o(.text)
    DMA1_Channel3_IRQHandler                 0x0800015f   Thumb Code     0  startup_stm32f10x_hd.o(.text)
    DMA1_Channel4_IRQHandler                 0x0800015f   Thumb Code     0  startup_stm32f10x_hd.o(.text)
    DMA1_Channel5_IRQHandler                 0x0800015f   Thumb Code     0  startup_stm32f10x_hd.o(.text)
    DMA1_Channel6_IRQHandler                 0x0800015f   Thumb Code     0  startup_stm32f10x_hd.o(.text)
    DMA1_Channel7_IRQHandler                 0x0800015f   Thumb Code     0  startup_stm32f10x_hd.o(.text)
    DMA2_Channel1_IRQHandler                 0x0800015f   Thumb Code     0  startup_stm32f10x_hd.o(.text)
    DMA2_Channel2_IRQHandler                 0x0800015f   Thumb Code     0  startup_stm32f10x_hd.o(.text)
    DMA2_Channel3_IRQHandler                 0x0800015f   Thumb Code     0  startup_stm32f10x_hd.o(.text)
    DMA2_Channel4_5_IRQHandler               0x0800015f   Thumb Code     0  startup_stm32f10x_hd.o(.text)
    EXTI0_IRQHandler                         0x0800015f   Thumb Code     0  startup_stm32f10x_hd.o(.text)
    EXTI15_10_IRQHandler                     0x0800015f   Thumb Code     0  startup_stm32f10x_hd.o(.text)
    EXTI1_IRQHandler                         0x0800015f   Thumb Code     0  startup_stm32f10x_hd.o(.text)
    EXTI2_IRQHandler                         0x0800015f   Thumb Code     0  startup_stm32f10x_hd.o(.text)
    EXTI3_IRQHandler                         0x0800015f   Thumb Code     0  startup_stm32f10x_hd.o(.text)
    EXTI4_IRQHandler                         0x0800015f   Thumb Code     0  startup_stm32f10x_hd.o(.text)
    EXTI9_5_IRQHandler                       0x0800015f   Thumb Code     0  startup_stm32f10x_hd.o(.text)
    FLASH_IRQHandler                         0x0800015f   Thumb Code     0  startup_stm32f10x_hd.o(.text)
    FSMC_IRQHandler                          0x0800015f   Thumb Code     0  startup_stm32f10x_hd.o(.text)
    I2C1_ER_IRQHandler                       0x0800015f   Thumb Code     0  startup_stm32f10x_hd.o(.text)
    I2C1_EV_IRQHandler                       0x0800015f   Thumb Code     0  startup_stm32f10x_hd.o(.text)
    I2C2_ER_IRQHandler                       0x0800015f   Thumb Code     0  startup_stm32f10x_hd.o(.text)
    I2C2_EV_IRQHandler                       0x0800015f   Thumb Code     0  startup_stm32f10x_hd.o(.text)
    PVD_IRQHandler                           0x0800015f   Thumb Code     0  startup_stm32f10x_hd.o(.text)
    RCC_IRQHandler                           0x0800015f   Thumb Code     0  startup_stm32f10x_hd.o(.text)
    RTCAlarm_IRQHandler                      0x0800015f   Thumb Code     0  startup_stm32f10x_hd.o(.text)
    RTC_IRQHandler                           0x0800015f   Thumb Code     0  startup_stm32f10x_hd.o(.text)
    SDIO_IRQHandler                          0x0800015f   Thumb Code     0  startup_stm32f10x_hd.o(.text)
    SPI1_IRQHandler                          0x0800015f   Thumb Code     0  startup_stm32f10x_hd.o(.text)
    SPI2_IRQHandler                          0x0800015f   Thumb Code     0  startup_stm32f10x_hd.o(.text)
    SPI3_IRQHandler                          0x0800015f   Thumb Code     0  startup_stm32f10x_hd.o(.text)
    TAMPER_IRQHandler                        0x0800015f   Thumb Code     0  startup_stm32f10x_hd.o(.text)
    TIM1_BRK_IRQHandler                      0x0800015f   Thumb Code     0  startup_stm32f10x_hd.o(.text)
    TIM1_CC_IRQHandler                       0x0800015f   Thumb Code     0  startup_stm32f10x_hd.o(.text)
    TIM1_TRG_COM_IRQHandler                  0x0800015f   Thumb Code     0  startup_stm32f10x_hd.o(.text)
    TIM1_UP_IRQHandler                       0x0800015f   Thumb Code     0  startup_stm32f10x_hd.o(.text)
    TIM2_IRQHandler                          0x0800015f   Thumb Code     0  startup_stm32f10x_hd.o(.text)
    TIM3_IRQHandler                          0x0800015f   Thumb Code     0  startup_stm32f10x_hd.o(.text)
    TIM4_IRQHandler                          0x0800015f   Thumb Code     0  startup_stm32f10x_hd.o(.text)
    TIM5_IRQHandler                          0x0800015f   Thumb Code     0  startup_stm32f10x_hd.o(.text)
    TIM6_IRQHandler                          0x0800015f   Thumb Code     0  startup_stm32f10x_hd.o(.text)
    TIM7_IRQHandler                          0x0800015f   Thumb Code     0  startup_stm32f10x_hd.o(.text)
    TIM8_BRK_IRQHandler                      0x0800015f   Thumb Code     0  startup_stm32f10x_hd.o(.text)
    TIM8_CC_IRQHandler                       0x0800015f   Thumb Code     0  startup_stm32f10x_hd.o(.text)
    TIM8_TRG_COM_IRQHandler                  0x0800015f   Thumb Code     0  startup_stm32f10x_hd.o(.text)
    TIM8_UP_IRQHandler                       0x0800015f   Thumb Code     0  startup_stm32f10x_hd.o(.text)
    USBWakeUp_IRQHandler                     0x0800015f   Thumb Code     0  startup_stm32f10x_hd.o(.text)
    USB_HP_CAN1_TX_IRQHandler                0x0800015f   Thumb Code     0  startup_stm32f10x_hd.o(.text)
    USB_LP_CAN1_RX0_IRQHandler               0x0800015f   Thumb Code     0  startup_stm32f10x_hd.o(.text)
    WWDG_IRQHandler                          0x0800015f   Thumb Code     0  startup_stm32f10x_hd.o(.text)
    tolower                                  0x08000169   Thumb Code    12  tolower.o(.text)
    __aeabi_memcpy                           0x08000175   Thumb Code    36  memcpya.o(.text)
    __aeabi_memcpy4                          0x08000175   Thumb Code     0  memcpya.o(.text)
    __aeabi_memcpy8                          0x08000175   Thumb Code     0  memcpya.o(.text)
    __aeabi_memset                           0x08000199   Thumb Code    14  memseta.o(.text)
    __aeabi_memset4                          0x08000199   Thumb Code     0  memseta.o(.text)
    __aeabi_memset8                          0x08000199   Thumb Code     0  memseta.o(.text)
    __aeabi_memclr                           0x080001a7   Thumb Code     4  memseta.o(.text)
    __aeabi_memclr4                          0x080001a7   Thumb Code     0  memseta.o(.text)
    __aeabi_memclr8                          0x080001a7   Thumb Code     0  memseta.o(.text)
    _memset$wrapper                          0x080001ab   Thumb Code    18  memseta.o(.text)
    strcat                                   0x080001bd   Thumb Code    24  strcat.o(.text)
    strlen                                   0x080001d5   Thumb Code    14  strlen.o(.text)
    strcmp                                   0x080001e3   Thumb Code    28  strcmp.o(.text)
    strcpy                                   0x080001ff   Thumb Code    18  strcpy.o(.text)
    strncmp                                  0x08000211   Thumb Code    30  strncmp.o(.text)
    __0sscanf                                0x08000231   Thumb Code    48  __0sscanf.o(.text)
    _scanf_real                              0x08000369   Thumb Code     0  scanf_fp.o(.text)
    _scanf_really_real                       0x08000369   Thumb Code   556  scanf_fp.o(.text)
    __aeabi_fadd                             0x080005a1   Thumb Code   164  fadd.o(.text)
    __aeabi_fsub                             0x08000645   Thumb Code     6  fadd.o(.text)
    __aeabi_frsub                            0x0800064b   Thumb Code     6  fadd.o(.text)
    __aeabi_fmul                             0x08000651   Thumb Code   100  fmul.o(.text)
    __aeabi_fdiv                             0x080006b5   Thumb Code   124  fdiv.o(.text)
    __aeabi_dadd                             0x08000731   Thumb Code   322  dadd.o(.text)
    __aeabi_dsub                             0x08000873   Thumb Code     6  dadd.o(.text)
    __aeabi_drsub                            0x08000879   Thumb Code     6  dadd.o(.text)
    __aeabi_dmul                             0x0800087f   Thumb Code   228  dmul.o(.text)
    __aeabi_i2f                              0x08000963   Thumb Code    18  fflti.o(.text)
    __aeabi_i2d                              0x08000975   Thumb Code    34  dflti.o(.text)
    __aeabi_ui2d                             0x08000997   Thumb Code    26  dfltui.o(.text)
    __aeabi_f2uiz                            0x080009b1   Thumb Code    40  ffixui.o(.text)
    __aeabi_d2iz                             0x080009d9   Thumb Code    62  dfixi.o(.text)
    __aeabi_f2d                              0x08000a17   Thumb Code    38  f2d.o(.text)
    __aeabi_cdcmpeq                          0x08000a3d   Thumb Code     0  cdcmple.o(.text)
    __aeabi_cdcmple                          0x08000a3d   Thumb Code    48  cdcmple.o(.text)
    __aeabi_cdrcmple                         0x08000a6d   Thumb Code    48  cdrcmple.o(.text)
    __aeabi_d2f                              0x08000a9d   Thumb Code    56  d2f.o(.text)
    __aeabi_uidiv                            0x08000ad5   Thumb Code     0  uidiv.o(.text)
    __aeabi_uidivmod                         0x08000ad5   Thumb Code    44  uidiv.o(.text)
    __aeabi_uldivmod                         0x08000b01   Thumb Code    98  uldiv.o(.text)
    __aeabi_llsl                             0x08000b63   Thumb Code    30  llshl.o(.text)
    _ll_shift_l                              0x08000b63   Thumb Code     0  llshl.o(.text)
    __aeabi_llsr                             0x08000b81   Thumb Code    32  llushr.o(.text)
    _ll_ushift_r                             0x08000b81   Thumb Code     0  llushr.o(.text)
    __aeabi_lasr                             0x08000ba1   Thumb Code    36  llsshr.o(.text)
    _ll_sshift_r                             0x08000ba1   Thumb Code     0  llsshr.o(.text)
    __rt_ctype_table                         0x08000bc5   Thumb Code     4  ctype_o.o(.text)
    isspace                                  0x08000bcd   Thumb Code    18  isspace_o.o(.text)
    __vfscanf_char                           0x08000bed   Thumb Code    20  scanf_char.o(.text)
    _sgetc                                   0x08000c09   Thumb Code    30  _sgetc.o(.text)
    _sbackspace                              0x08000c27   Thumb Code    34  _sgetc.o(.text)
    __strtod_int                             0x08000c7f   Thumb Code    88  strtod.o(.text)
    __I$use$fp                               0x08000ce5   Thumb Code     0  iusefp.o(.text)
    _float_round                             0x08000ce5   Thumb Code    18  fepilogue.o(.text)
    _float_epilogue                          0x08000cf7   Thumb Code    92  fepilogue.o(.text)
    _double_round                            0x08000d53   Thumb Code    30  depilogue.o(.text)
    _double_epilogue                         0x08000d71   Thumb Code   156  depilogue.o(.text)
    __aeabi_ddiv                             0x08000e0d   Thumb Code   222  ddiv.o(.text)
    __aeabi_ul2d                             0x08000eeb   Thumb Code    24  dfltul.o(.text)
    __aeabi_d2ulz                            0x08000f03   Thumb Code    48  dfixul.o(.text)
    __scatterload                            0x08000f35   Thumb Code    28  init.o(.text)
    __scatterload_rt2                        0x08000f35   Thumb Code     0  init.o(.text)
    __vfscanf                                0x08000f59   Thumb Code   808  _scanf.o(.text)
    BusFault_Handler                         0x08001285   Thumb Code     4  stm32f10x_it.o(i.BusFault_Handler)
    CalculateIndent                          0x08001289   Thumb Code   422  scancode.o(i.CalculateIndent)
    DebugMon_Handler                         0x080014e9   Thumb Code     2  stm32f10x_it.o(i.DebugMon_Handler)
    DelayMs                                  0x080014ed   Thumb Code    16  systick.o(i.DelayMs)
    DisposeReturnData                        0x08001501   Thumb Code    12  openmv.o(i.DisposeReturnData)
    DisposeUsartTTFT                         0x0800150d   Thumb Code   138  uasrttft.o(i.DisposeUsartTTFT)
    Door_OFF                                 0x080015d5   Thumb Code    10  servo.o(i.Door_OFF)
    Door_ON                                  0x080015e5   Thumb Code    10  servo.o(i.Door_ON)
    GPIO_Init                                0x080015ef   Thumb Code   278  stm32f10x_gpio.o(i.GPIO_Init)
    HardFault_Handler                        0x08001705   Thumb Code     4  stm32f10x_it.o(i.HardFault_Handler)
    MemManage_Handler                        0x08001709   Thumb Code     4  stm32f10x_it.o(i.MemManage_Handler)
    NMI_Handler                              0x0800170d   Thumb Code     2  stm32f10x_it.o(i.NMI_Handler)
    NVIC_Init                                0x08001711   Thumb Code   100  misc.o(i.NVIC_Init)
    NVIC_PriorityGroupConfig                 0x08001781   Thumb Code    10  misc.o(i.NVIC_PriorityGroupConfig)
    PendSV_Handler                           0x08001795   Thumb Code     2  stm32f10x_it.o(i.PendSV_Handler)
    RCC_APB1PeriphClockCmd                   0x08001799   Thumb Code    26  stm32f10x_rcc.o(i.RCC_APB1PeriphClockCmd)
    RCC_APB2PeriphClockCmd                   0x080017b9   Thumb Code    26  stm32f10x_rcc.o(i.RCC_APB2PeriphClockCmd)
    RCC_GetClocksFreq                        0x080017d9   Thumb Code   192  stm32f10x_rcc.o(i.RCC_GetClocksFreq)
    RunAllTask                               0x080018ad   Thumb Code    28  main.o(i.RunAllTask)
    SVC_Handler                              0x080018c9   Thumb Code     2  stm32f10x_it.o(i.SVC_Handler)
    Save_Goods_falsh                         0x080018cd   Thumb Code   320  goods.o(i.Save_Goods_falsh)
    Save_user_falsh                          0x08001b29   Thumb Code    40  user.o(i.Save_user_falsh)
    Servo_Init                               0x08001b71   Thumb Code   146  servo.o(i.Servo_Init)
    Servo_angle                              0x08001c09   Thumb Code    52  servo.o(i.Servo_angle)
    Startbill                                0x08001d31   Thumb Code    28  scancode.o(i.Startbill)
    SysInit                                  0x08001d6d   Thumb Code    24  system.o(i.SysInit)
    SysTick_Handler                          0x08001d85   Thumb Code    38  systick.o(i.SysTick_Handler)
    SystemInit                               0x08001db1   Thumb Code    78  system_stm32f10x.o(i.SystemInit)
    SystickInit                              0x08001e11   Thumb Code    96  systick.o(i.SystickInit)
    TIM_Cmd                                  0x08001e81   Thumb Code    24  stm32f10x_tim.o(i.TIM_Cmd)
    TIM_InternalClockConfig                  0x08001e99   Thumb Code    12  stm32f10x_tim.o(i.TIM_InternalClockConfig)
    TIM_OC2Init                              0x08001ea5   Thumb Code   154  stm32f10x_tim.o(i.TIM_OC2Init)
    TIM_OCStructInit                         0x08001f49   Thumb Code    20  stm32f10x_tim.o(i.TIM_OCStructInit)
    TIM_SetCompare2                          0x08001f5d   Thumb Code     4  stm32f10x_tim.o(i.TIM_SetCompare2)
    TIM_TimeBaseInit                         0x08001f61   Thumb Code   122  stm32f10x_tim.o(i.TIM_TimeBaseInit)
    Task1                                    0x08002005   Thumb Code    50  task.o(i.Task1)
    Task2                                    0x08002049   Thumb Code    32  task.o(i.Task2)
    UART4_IRQHandler                         0x08002075   Thumb Code    58  usart.o(i.UART4_IRQHandler)
    UART4_RecProcess                         0x080020c1   Thumb Code    58  usart.o(i.UART4_RecProcess)
    UART5_IRQHandler                         0x08002109   Thumb Code    58  usart.o(i.UART5_IRQHandler)
    USART1_IRQHandler                        0x08002155   Thumb Code    58  usart.o(i.USART1_IRQHandler)
    USART1_RecProcess                        0x080021a1   Thumb Code    58  usart.o(i.USART1_RecProcess)
    USART2_IRQHandler                        0x080021e9   Thumb Code    58  usart.o(i.USART2_IRQHandler)
    USART2_RecProcess                        0x08002235   Thumb Code    58  usart.o(i.USART2_RecProcess)
    USART3_IRQHandler                        0x0800227d   Thumb Code    58  usart.o(i.USART3_IRQHandler)
    USART3_RecProcess                        0x080022c9   Thumb Code    58  usart.o(i.USART3_RecProcess)
    USART_ClearFlag                          0x08002311   Thumb Code    18  stm32f10x_usart.o(i.USART_ClearFlag)
    USART_ClearITPendingBit                  0x08002323   Thumb Code    30  stm32f10x_usart.o(i.USART_ClearITPendingBit)
    USART_Cmd                                0x08002341   Thumb Code    24  stm32f10x_usart.o(i.USART_Cmd)
    USART_GetFlagStatus                      0x08002359   Thumb Code    26  stm32f10x_usart.o(i.USART_GetFlagStatus)
    USART_GetITStatus                        0x08002373   Thumb Code    84  stm32f10x_usart.o(i.USART_GetITStatus)
    USART_ITConfig                           0x080023c7   Thumb Code    74  stm32f10x_usart.o(i.USART_ITConfig)
    USART_Init                               0x08002411   Thumb Code   210  stm32f10x_usart.o(i.USART_Init)
    USART_ReceiveData                        0x080024e9   Thumb Code    10  stm32f10x_usart.o(i.USART_ReceiveData)
    USART_SendData                           0x080024f3   Thumb Code     8  stm32f10x_usart.o(i.USART_SendData)
    UpdateIndent                             0x080024fd   Thumb Code   132  scancode.o(i.UpdateIndent)
    UsageFault_Handler                       0x08002589   Thumb Code     4  stm32f10x_it.o(i.UsageFault_Handler)
    __0printf                                0x0800258d   Thumb Code    22  printfa.o(i.__0printf)
    __1printf                                0x0800258d   Thumb Code     0  printfa.o(i.__0printf)
    __2printf                                0x0800258d   Thumb Code     0  printfa.o(i.__0printf)
    __c89printf                              0x0800258d   Thumb Code     0  printfa.o(i.__0printf)
    printf                                   0x0800258d   Thumb Code     0  printfa.o(i.__0printf)
    __0snprintf                              0x080025ad   Thumb Code    36  printfa.o(i.__0snprintf)
    __1snprintf                              0x080025ad   Thumb Code     0  printfa.o(i.__0snprintf)
    __2snprintf                              0x080025ad   Thumb Code     0  printfa.o(i.__0snprintf)
    __c89snprintf                            0x080025ad   Thumb Code     0  printfa.o(i.__0snprintf)
    snprintf                                 0x080025ad   Thumb Code     0  printfa.o(i.__0snprintf)
    __0sprintf                               0x080025d5   Thumb Code    34  printfa.o(i.__0sprintf)
    __1sprintf                               0x080025d5   Thumb Code     0  printfa.o(i.__0sprintf)
    __2sprintf                               0x080025d5   Thumb Code     0  printfa.o(i.__0sprintf)
    __c89sprintf                             0x080025d5   Thumb Code     0  printfa.o(i.__0sprintf)
    sprintf                                  0x080025d5   Thumb Code     0  printfa.o(i.__0sprintf)
    free                                     0x080025fd   Thumb Code    88  mallocr.o(i.__free$realloc)
    malloc                                   0x08002659   Thumb Code    64  mallocr.o(i.__malloc$realloc)
    __scatterload_copy                       0x080026a9   Thumb Code    14  handlers.o(i.__scatterload_copy)
    __scatterload_null                       0x080026b7   Thumb Code     2  handlers.o(i.__scatterload_null)
    __scatterload_zeroinit                   0x080026b9   Thumb Code    14  handlers.o(i.__scatterload_zeroinit)
    _is_digit                                0x0800282d   Thumb Code    14  scanf_fp.o(i._is_digit)
    cJSON_AddNumberToObject                  0x08003085   Thumb Code    56  cjson.o(i.cJSON_AddNumberToObject)
    cJSON_CreateNumber                       0x080030c1   Thumb Code    82  cjson.o(i.cJSON_CreateNumber)
    cJSON_CreateObject                       0x08003125   Thumb Code    20  cjson.o(i.cJSON_CreateObject)
    cJSON_Delete                             0x0800313d   Thumb Code    84  cjson.o(i.cJSON_Delete)
    cJSON_GetObjectItem                      0x08003195   Thumb Code    18  cjson.o(i.cJSON_GetObjectItem)
    cJSON_Parse                              0x080031c1   Thumb Code    16  cjson.o(i.cJSON_Parse)
    cJSON_ParseWithLengthOpts                0x080031d1   Thumb Code   204  cjson.o(i.cJSON_ParseWithLengthOpts)
    cJSON_ParseWithOpts                      0x080032a5   Thumb Code    40  cjson.o(i.cJSON_ParseWithOpts)
    cJSON_Print                              0x080032cd   Thumb Code    16  cjson.o(i.cJSON_Print)
    cJSON_free                               0x080032e1   Thumb Code    14  cjson.o(i.cJSON_free)
    change_discount                          0x08003379   Thumb Code     8  scancode.o(i.change_discount)
    fputc                                    0x080034b1   Thumb Code    32  usart.o(i.fputc)
    init_all                                 0x0800352b   Thumb Code    52  main.o(i.init_all)
    init_indent                              0x08003561   Thumb Code    32  scancode.o(i.init_indent)
    init_uart4                               0x08003589   Thumb Code   174  usart.o(i.init_uart4)
    init_usart1                              0x08003641   Thumb Code   168  usart.o(i.init_usart1)
    init_usart2                              0x080036f1   Thumb Code   170  usart.o(i.init_usart2)
    init_usart3                              0x080037a5   Thumb Code   174  usart.o(i.init_usart3)
    is_CodeType                              0x080038ad   Thumb Code    22  scancode.o(i.is_CodeType)
    main                                     0x080038c9   Thumb Code    16  main.o(i.main)
    realloc                                  0x08004621   Thumb Code   102  mallocr.o(i.realloc)
    receive_order                            0x0800468d   Thumb Code   282  order.o(i.receive_order)
    send_indent                              0x08004821   Thumb Code   220  uasrttft.o(i.send_indent)
    setCodePage                              0x08004995   Thumb Code     6  scancode.o(i.setCodePage)
    setReturnOpenmv                          0x080049a1   Thumb Code    26  uasrttft.o(i.setReturnOpenmv)
    setScanCode                              0x080049c9   Thumb Code    24  scancode.o(i.setScanCode)
    strart_face                              0x08004a25   Thumb Code    12  openmv.o(i.strart_face)
    strtod                                   0x08004a39   Thumb Code    28  strtod.o(i.strtod)
    update_code                              0x08004a5d   Thumb Code    90  order.o(i.update_code)
    usart_send_byte                          0x08004b09   Thumb Code    30  usart.o(i.usart_send_byte)
    usart_send_string                        0x08004b27   Thumb Code    28  usart.o(i.usart_send_string)
    ConstTaskTime                            0x08004c70   Data          16  task.o(.constdata)
    __ctype_table                            0x08004c80   Data         129  ctype_o.o(.constdata)
    Region$$Table$$Base                      0x08004d08   Number         0  anon$$obj.o(Region$$Table)
    Region$$Table$$Limit                     0x08004d28   Number         0  anon$$obj.o(Region$$Table)
    usart1_pos                               0x20000028   Data           2  usart.o(.data)
    usart2_pos                               0x2000002a   Data           2  usart.o(.data)
    usart3_pos                               0x2000002c   Data           2  usart.o(.data)
    uart4_pos                                0x2000002e   Data           2  usart.o(.data)
    uart5_pos                                0x20000030   Data           2  usart.o(.data)
    Goodsnum                                 0x20000034   Data           4  goods.o(.data)
    UserNum                                  0x20000038   Data           4  user.o(.data)
    is_facing                                0x2000003c   Data           1  uasrttft.o(.data)
    is_return_openmv                         0x2000003d   Data           1  uasrttft.o(.data)
    is_return_page                           0x2000003e   Data           1  uasrttft.o(.data)
    is_CodePage                              0x2000003f   Data           1  scancode.o(.data)
    is_EIC                                   0x20000040   Data           1  order.o(.data)
    is_door                                  0x20000041   Data           1  order.o(.data)
    __stdout                                 0x20000044   Data           4  stdout.o(.data)
    __microlib_freelist                      0x20000048   Data           4  mvars.o(.data)
    __microlib_freelist_initialised          0x2000004c   Data           4  mvars.o(.data)
    sysTimer                                 0x20000050   Data          72  systick.o(.bss)
    usart1_rx_buf                            0x20000098   Data         256  usart.o(.bss)
    usart2_rx_buf                            0x20000198   Data         256  usart.o(.bss)
    usart3_rx_buf                            0x20000298   Data         256  usart.o(.bss)
    uart4_rx_buf                             0x20000398   Data         256  usart.o(.bss)
    uart5_rx_buf                             0x20000498   Data         256  usart.o(.bss)
    goods                                    0x20000598   Data        3200  goods.o(.bss)
    user                                     0x20001218   Data         880  user.o(.bss)
    OpenmvReturnData                         0x20001588   Data          32  uasrttft.o(.bss)
    ScanCode                                 0x200015a8   Data         128  scancode.o(.bss)
    indent                                   0x20001628   Data        7220  scancode.o(.bss)
    __heap_base                              0x20003260   Data           0  startup_stm32f10x_hd.o(HEAP)
    __heap_limit                             0x20004160   Data           0  startup_stm32f10x_hd.o(HEAP)
    __initial_sp                             0x20004560   Data           0  startup_stm32f10x_hd.o(STACK)



==============================================================================

Memory Map of the image

  Image Entry point : 0x08000131

  Load Region LR_IROM1 (Base: 0x08000000, Size: 0x00004d78, Max: 0x00080000, ABSOLUTE)

    Execution Region ER_IROM1 (Exec base: 0x08000000, Load base: 0x08000000, Size: 0x00004d28, Max: 0x00080000, ABSOLUTE)

    Exec Addr    Load Addr    Size         Type   Attr      Idx    E Section Name        Object

    0x08000000   0x08000000   0x00000130   Data   RO            3    RESET               startup_stm32f10x_hd.o
    0x08000130   0x08000130   0x00000000   Code   RO         4653  * .ARM.Collect$$$$00000000  mc_w.l(entry.o)
    0x08000130   0x08000130   0x00000004   Code   RO         4999    .ARM.Collect$$$$00000001  mc_w.l(entry2.o)
    0x08000134   0x08000134   0x00000004   Code   RO         5002    .ARM.Collect$$$$00000004  mc_w.l(entry5.o)
    0x08000138   0x08000138   0x00000000   Code   RO         5004    .ARM.Collect$$$$00000008  mc_w.l(entry7b.o)
    0x08000138   0x08000138   0x00000000   Code   RO         5006    .ARM.Collect$$$$0000000A  mc_w.l(entry8b.o)
    0x08000138   0x08000138   0x00000008   Code   RO         5007    .ARM.Collect$$$$0000000B  mc_w.l(entry9a.o)
    0x08000140   0x08000140   0x00000000   Code   RO         5009    .ARM.Collect$$$$0000000D  mc_w.l(entry10a.o)
    0x08000140   0x08000140   0x00000000   Code   RO         5011    .ARM.Collect$$$$0000000F  mc_w.l(entry11a.o)
    0x08000140   0x08000140   0x00000004   Code   RO         5000    .ARM.Collect$$$$00002712  mc_w.l(entry2.o)
    0x08000144   0x08000144   0x00000024   Code   RO            4    .text               startup_stm32f10x_hd.o
    0x08000168   0x08000168   0x0000000c   Code   RO         4656    .text               mc_w.l(tolower.o)
    0x08000174   0x08000174   0x00000024   Code   RO         4658    .text               mc_w.l(memcpya.o)
    0x08000198   0x08000198   0x00000024   Code   RO         4660    .text               mc_w.l(memseta.o)
    0x080001bc   0x080001bc   0x00000018   Code   RO         4662    .text               mc_w.l(strcat.o)
    0x080001d4   0x080001d4   0x0000000e   Code   RO         4664    .text               mc_w.l(strlen.o)
    0x080001e2   0x080001e2   0x0000001c   Code   RO         4666    .text               mc_w.l(strcmp.o)
    0x080001fe   0x080001fe   0x00000012   Code   RO         4668    .text               mc_w.l(strcpy.o)
    0x08000210   0x08000210   0x0000001e   Code   RO         4670    .text               mc_w.l(strncmp.o)
    0x0800022e   0x0800022e   0x00000002   PAD
    0x08000230   0x08000230   0x00000038   Code   RO         4963    .text               mc_w.l(__0sscanf.o)
    0x08000268   0x08000268   0x00000338   Code   RO         4965    .text               mc_w.l(scanf_fp.o)
    0x080005a0   0x080005a0   0x000000b0   Code   RO         4971    .text               mf_w.l(fadd.o)
    0x08000650   0x08000650   0x00000064   Code   RO         4973    .text               mf_w.l(fmul.o)
    0x080006b4   0x080006b4   0x0000007c   Code   RO         4975    .text               mf_w.l(fdiv.o)
    0x08000730   0x08000730   0x0000014e   Code   RO         4977    .text               mf_w.l(dadd.o)
    0x0800087e   0x0800087e   0x000000e4   Code   RO         4979    .text               mf_w.l(dmul.o)
    0x08000962   0x08000962   0x00000012   Code   RO         4981    .text               mf_w.l(fflti.o)
    0x08000974   0x08000974   0x00000022   Code   RO         4983    .text               mf_w.l(dflti.o)
    0x08000996   0x08000996   0x0000001a   Code   RO         4985    .text               mf_w.l(dfltui.o)
    0x080009b0   0x080009b0   0x00000028   Code   RO         4987    .text               mf_w.l(ffixui.o)
    0x080009d8   0x080009d8   0x0000003e   Code   RO         4989    .text               mf_w.l(dfixi.o)
    0x08000a16   0x08000a16   0x00000026   Code   RO         4991    .text               mf_w.l(f2d.o)
    0x08000a3c   0x08000a3c   0x00000030   Code   RO         4993    .text               mf_w.l(cdcmple.o)
    0x08000a6c   0x08000a6c   0x00000030   Code   RO         4995    .text               mf_w.l(cdrcmple.o)
    0x08000a9c   0x08000a9c   0x00000038   Code   RO         4997    .text               mf_w.l(d2f.o)
    0x08000ad4   0x08000ad4   0x0000002c   Code   RO         5014    .text               mc_w.l(uidiv.o)
    0x08000b00   0x08000b00   0x00000062   Code   RO         5016    .text               mc_w.l(uldiv.o)
    0x08000b62   0x08000b62   0x0000001e   Code   RO         5018    .text               mc_w.l(llshl.o)
    0x08000b80   0x08000b80   0x00000020   Code   RO         5020    .text               mc_w.l(llushr.o)
    0x08000ba0   0x08000ba0   0x00000024   Code   RO         5022    .text               mc_w.l(llsshr.o)
    0x08000bc4   0x08000bc4   0x00000008   Code   RO         5024    .text               mc_w.l(ctype_o.o)
    0x08000bcc   0x08000bcc   0x00000012   Code   RO         5046    .text               mc_w.l(isspace_o.o)
    0x08000bde   0x08000bde   0x00000002   PAD
    0x08000be0   0x08000be0   0x00000028   Code   RO         5061    .text               mc_w.l(scanf_char.o)
    0x08000c08   0x08000c08   0x00000040   Code   RO         5063    .text               mc_w.l(_sgetc.o)
    0x08000c48   0x08000c48   0x0000009c   Code   RO         5067    .text               mc_w.l(strtod.o)
    0x08000ce4   0x08000ce4   0x00000000   Code   RO         5069    .text               mc_w.l(iusefp.o)
    0x08000ce4   0x08000ce4   0x0000006e   Code   RO         5070    .text               mf_w.l(fepilogue.o)
    0x08000d52   0x08000d52   0x000000ba   Code   RO         5072    .text               mf_w.l(depilogue.o)
    0x08000e0c   0x08000e0c   0x000000de   Code   RO         5074    .text               mf_w.l(ddiv.o)
    0x08000eea   0x08000eea   0x00000018   Code   RO         5076    .text               mf_w.l(dfltul.o)
    0x08000f02   0x08000f02   0x00000030   Code   RO         5078    .text               mf_w.l(dfixul.o)
    0x08000f32   0x08000f32   0x00000002   PAD
    0x08000f34   0x08000f34   0x00000024   Code   RO         5080    .text               mc_w.l(init.o)
    0x08000f58   0x08000f58   0x0000032c   Code   RO         5086    .text               mc_w.l(_scanf.o)
    0x08001284   0x08001284   0x00000004   Code   RO         4570    i.BusFault_Handler  stm32f10x_it.o
    0x08001288   0x08001288   0x00000260   Code   RO         4449    i.CalculateIndent   scancode.o
    0x080014e8   0x080014e8   0x00000002   Code   RO         4571    i.DebugMon_Handler  stm32f10x_it.o
    0x080014ea   0x080014ea   0x00000002   PAD
    0x080014ec   0x080014ec   0x00000014   Code   RO         3924    i.DelayMs           systick.o
    0x08001500   0x08001500   0x0000000c   Code   RO         4237    i.DisposeReturnData  openmv.o
    0x0800150c   0x0800150c   0x000000c8   Code   RO         4391    i.DisposeUsartTTFT  uasrttft.o
    0x080015d4   0x080015d4   0x00000010   Code   RO         4419    i.Door_OFF          servo.o
    0x080015e4   0x080015e4   0x0000000a   Code   RO         4420    i.Door_ON           servo.o
    0x080015ee   0x080015ee   0x00000116   Code   RO         1292    i.GPIO_Init         stm32f10x_gpio.o
    0x08001704   0x08001704   0x00000004   Code   RO         4572    i.HardFault_Handler  stm32f10x_it.o
    0x08001708   0x08001708   0x00000004   Code   RO         4573    i.MemManage_Handler  stm32f10x_it.o
    0x0800170c   0x0800170c   0x00000002   Code   RO         4574    i.NMI_Handler       stm32f10x_it.o
    0x0800170e   0x0800170e   0x00000002   PAD
    0x08001710   0x08001710   0x00000070   Code   RO          137    i.NVIC_Init         misc.o
    0x08001780   0x08001780   0x00000014   Code   RO          138    i.NVIC_PriorityGroupConfig  misc.o
    0x08001794   0x08001794   0x00000002   Code   RO         4575    i.PendSV_Handler    stm32f10x_it.o
    0x08001796   0x08001796   0x00000002   PAD
    0x08001798   0x08001798   0x00000020   Code   RO         1708    i.RCC_APB1PeriphClockCmd  stm32f10x_rcc.o
    0x080017b8   0x080017b8   0x00000020   Code   RO         1710    i.RCC_APB2PeriphClockCmd  stm32f10x_rcc.o
    0x080017d8   0x080017d8   0x000000d4   Code   RO         1718    i.RCC_GetClocksFreq  stm32f10x_rcc.o
    0x080018ac   0x080018ac   0x0000001c   Code   RO         4543    i.RunAllTask        main.o
    0x080018c8   0x080018c8   0x00000002   Code   RO         4576    i.SVC_Handler       stm32f10x_it.o
    0x080018ca   0x080018ca   0x00000002   PAD
    0x080018cc   0x080018cc   0x0000025c   Code   RO         4168    i.Save_Goods_falsh  goods.o
    0x08001b28   0x08001b28   0x00000048   Code   RO         4203    i.Save_user_falsh   user.o
    0x08001b70   0x08001b70   0x00000098   Code   RO         4421    i.Servo_Init        servo.o
    0x08001c08   0x08001c08   0x00000040   Code   RO         4422    i.Servo_angle       servo.o
    0x08001c48   0x08001c48   0x00000008   Code   RO           24    i.SetSysClock       system_stm32f10x.o
    0x08001c50   0x08001c50   0x000000e0   Code   RO           25    i.SetSysClockTo72   system_stm32f10x.o
    0x08001d30   0x08001d30   0x0000003c   Code   RO         4450    i.Startbill         scancode.o
    0x08001d6c   0x08001d6c   0x00000018   Code   RO         3839    i.SysInit           system.o
    0x08001d84   0x08001d84   0x0000002c   Code   RO         3926    i.SysTick_Handler   systick.o
    0x08001db0   0x08001db0   0x00000060   Code   RO           27    i.SystemInit        system_stm32f10x.o
    0x08001e10   0x08001e10   0x00000070   Code   RO         3927    i.SystickInit       systick.o
    0x08001e80   0x08001e80   0x00000018   Code   RO         2342    i.TIM_Cmd           stm32f10x_tim.o
    0x08001e98   0x08001e98   0x0000000c   Code   RO         2369    i.TIM_InternalClockConfig  stm32f10x_tim.o
    0x08001ea4   0x08001ea4   0x000000a4   Code   RO         2376    i.TIM_OC2Init       stm32f10x_tim.o
    0x08001f48   0x08001f48   0x00000014   Code   RO         2389    i.TIM_OCStructInit  stm32f10x_tim.o
    0x08001f5c   0x08001f5c   0x00000004   Code   RO         2404    i.TIM_SetCompare2   stm32f10x_tim.o
    0x08001f60   0x08001f60   0x000000a4   Code   RO         2413    i.TIM_TimeBaseInit  stm32f10x_tim.o
    0x08002004   0x08002004   0x00000044   Code   RO         3964    i.Task1             task.o
    0x08002048   0x08002048   0x0000002c   Code   RO         3965    i.Task2             task.o
    0x08002074   0x08002074   0x0000004c   Code   RO         3997    i.UART4_IRQHandler  usart.o
    0x080020c0   0x080020c0   0x00000048   Code   RO         3998    i.UART4_RecProcess  usart.o
    0x08002108   0x08002108   0x0000004c   Code   RO         3999    i.UART5_IRQHandler  usart.o
    0x08002154   0x08002154   0x0000004c   Code   RO         4000    i.USART1_IRQHandler  usart.o
    0x080021a0   0x080021a0   0x00000048   Code   RO         4001    i.USART1_RecProcess  usart.o
    0x080021e8   0x080021e8   0x0000004c   Code   RO         4002    i.USART2_IRQHandler  usart.o
    0x08002234   0x08002234   0x00000048   Code   RO         4003    i.USART2_RecProcess  usart.o
    0x0800227c   0x0800227c   0x0000004c   Code   RO         4004    i.USART3_IRQHandler  usart.o
    0x080022c8   0x080022c8   0x00000048   Code   RO         4005    i.USART3_RecProcess  usart.o
    0x08002310   0x08002310   0x00000012   Code   RO         2874    i.USART_ClearFlag   stm32f10x_usart.o
    0x08002322   0x08002322   0x0000001e   Code   RO         2875    i.USART_ClearITPendingBit  stm32f10x_usart.o
    0x08002340   0x08002340   0x00000018   Code   RO         2878    i.USART_Cmd         stm32f10x_usart.o
    0x08002358   0x08002358   0x0000001a   Code   RO         2881    i.USART_GetFlagStatus  stm32f10x_usart.o
    0x08002372   0x08002372   0x00000054   Code   RO         2882    i.USART_GetITStatus  stm32f10x_usart.o
    0x080023c6   0x080023c6   0x0000004a   Code   RO         2884    i.USART_ITConfig    stm32f10x_usart.o
    0x08002410   0x08002410   0x000000d8   Code   RO         2885    i.USART_Init        stm32f10x_usart.o
    0x080024e8   0x080024e8   0x0000000a   Code   RO         2892    i.USART_ReceiveData  stm32f10x_usart.o
    0x080024f2   0x080024f2   0x00000008   Code   RO         2895    i.USART_SendData    stm32f10x_usart.o
    0x080024fa   0x080024fa   0x00000002   PAD
    0x080024fc   0x080024fc   0x0000008c   Code   RO         4451    i.UpdateIndent      scancode.o
    0x08002588   0x08002588   0x00000004   Code   RO         4577    i.UsageFault_Handler  stm32f10x_it.o
    0x0800258c   0x0800258c   0x00000020   Code   RO         4907    i.__0printf         mc_w.l(printfa.o)
    0x080025ac   0x080025ac   0x00000028   Code   RO         4908    i.__0snprintf       mc_w.l(printfa.o)
    0x080025d4   0x080025d4   0x00000028   Code   RO         4909    i.__0sprintf        mc_w.l(printfa.o)
    0x080025fc   0x080025fc   0x0000005c   Code   RO         4939    i.__free$realloc    mc_w.l(mallocr.o)
    0x08002658   0x08002658   0x00000050   Code   RO         4940    i.__malloc$realloc  mc_w.l(mallocr.o)
    0x080026a8   0x080026a8   0x0000000e   Code   RO         5093    i.__scatterload_copy  mc_w.l(handlers.o)
    0x080026b6   0x080026b6   0x00000002   Code   RO         5094    i.__scatterload_null  mc_w.l(handlers.o)
    0x080026b8   0x080026b8   0x0000000e   Code   RO         5095    i.__scatterload_zeroinit  mc_w.l(handlers.o)
    0x080026c6   0x080026c6   0x00000002   PAD
    0x080026c8   0x080026c8   0x00000164   Code   RO         4914    i._fp_digits        mc_w.l(printfa.o)
    0x0800282c   0x0800282c   0x0000000e   Code   RO         4967    i._is_digit         mc_w.l(scanf_fp.o)
    0x0800283a   0x0800283a   0x00000002   PAD
    0x0800283c   0x0800283c   0x000006dc   Code   RO         4915    i._printf_core      mc_w.l(printfa.o)
    0x08002f18   0x08002f18   0x00000024   Code   RO         4916    i._printf_post_padding  mc_w.l(printfa.o)
    0x08002f3c   0x08002f3c   0x0000002e   Code   RO         4917    i._printf_pre_padding  mc_w.l(printfa.o)
    0x08002f6a   0x08002f6a   0x00000016   Code   RO         4918    i._snputc           mc_w.l(printfa.o)
    0x08002f80   0x08002f80   0x0000000a   Code   RO         4919    i._sputc            mc_w.l(printfa.o)
    0x08002f8a   0x08002f8a   0x00000036   Code   RO         3163    i.add_item_to_array  cjson.o
    0x08002fc0   0x08002fc0   0x0000007a   Code   RO         3164    i.add_item_to_object  cjson.o
    0x0800303a   0x0800303a   0x00000048   Code   RO         3165    i.buffer_skip_whitespace  cjson.o
    0x08003082   0x08003082   0x00000002   PAD
    0x08003084   0x08003084   0x0000003c   Code   RO         3175    i.cJSON_AddNumberToObject  cjson.o
    0x080030c0   0x080030c0   0x00000064   Code   RO         3189    i.cJSON_CreateNumber  cjson.o
    0x08003124   0x08003124   0x00000018   Code   RO         3190    i.cJSON_CreateObject  cjson.o
    0x0800313c   0x0800313c   0x00000058   Code   RO         3197    i.cJSON_Delete      cjson.o
    0x08003194   0x08003194   0x00000012   Code   RO         3210    i.cJSON_GetObjectItem  cjson.o
    0x080031a6   0x080031a6   0x0000001a   Code   RO         3227    i.cJSON_New_Item    cjson.o
    0x080031c0   0x080031c0   0x00000010   Code   RO         3228    i.cJSON_Parse       cjson.o
    0x080031d0   0x080031d0   0x000000d4   Code   RO         3230    i.cJSON_ParseWithLengthOpts  cjson.o
    0x080032a4   0x080032a4   0x00000028   Code   RO         3231    i.cJSON_ParseWithOpts  cjson.o
    0x080032cc   0x080032cc   0x00000014   Code   RO         3232    i.cJSON_Print       cjson.o
    0x080032e0   0x080032e0   0x00000014   Code   RO         3243    i.cJSON_free        cjson.o
    0x080032f4   0x080032f4   0x00000038   Code   RO         3245    i.cJSON_strdup      cjson.o
    0x0800332c   0x0800332c   0x00000048   Code   RO         3246    i.case_insensitive_strcmp  cjson.o
    0x08003374   0x08003374   0x00000002   Code   RO         3247    i.cast_away_const   cjson.o
    0x08003376   0x08003376   0x00000002   PAD
    0x08003378   0x08003378   0x0000000c   Code   RO         4452    i.change_discount   scancode.o
    0x08003384   0x08003384   0x00000074   Code   RO         3248    i.compare_double    cjson.o
    0x080033f8   0x080033f8   0x000000b8   Code   RO         3250    i.ensure            cjson.o
    0x080034b0   0x080034b0   0x00000024   Code   RO         4007    i.fputc             usart.o
    0x080034d4   0x080034d4   0x00000004   Code   RO         3252    i.get_decimal_point  cjson.o
    0x080034d8   0x080034d8   0x00000052   Code   RO         3253    i.get_object_item   cjson.o
    0x0800352a   0x0800352a   0x00000034   Code   RO         4544    i.init_all          main.o
    0x0800355e   0x0800355e   0x00000002   PAD
    0x08003560   0x08003560   0x00000028   Code   RO         4455    i.init_indent       scancode.o
    0x08003588   0x08003588   0x000000b8   Code   RO         4008    i.init_uart4        usart.o
    0x08003640   0x08003640   0x000000b0   Code   RO         4010    i.init_usart1       usart.o
    0x080036f0   0x080036f0   0x000000b4   Code   RO         4011    i.init_usart2       usart.o
    0x080037a4   0x080037a4   0x000000b8   Code   RO         4012    i.init_usart3       usart.o
    0x0800385c   0x0800385c   0x00000050   Code   RO         4941    i.internal_alloc    mc_w.l(mallocr.o)
    0x080038ac   0x080038ac   0x0000001c   Code   RO         4456    i.is_CodeType       scancode.o
    0x080038c8   0x080038c8   0x00000010   Code   RO         4545    i.main              main.o
    0x080038d8   0x080038d8   0x000000f8   Code   RO         3255    i.parse_array       cjson.o
    0x080039d0   0x080039d0   0x0000005a   Code   RO         3256    i.parse_hex4        cjson.o
    0x08003a2a   0x08003a2a   0x00000002   PAD
    0x08003a2c   0x08003a2c   0x00000138   Code   RO         3257    i.parse_number      cjson.o
    0x08003b64   0x08003b64   0x0000013e   Code   RO         3258    i.parse_object      cjson.o
    0x08003ca2   0x08003ca2   0x0000018c   Code   RO         3259    i.parse_string      cjson.o
    0x08003e2e   0x08003e2e   0x00000002   PAD
    0x08003e30   0x08003e30   0x0000013c   Code   RO         3260    i.parse_value       cjson.o
    0x08003f6c   0x08003f6c   0x000000b2   Code   RO         3261    i.print             cjson.o
    0x0800401e   0x0800401e   0x000000b2   Code   RO         3262    i.print_array       cjson.o
    0x080040d0   0x080040d0   0x00000154   Code   RO         3263    i.print_number      cjson.o
    0x08004224   0x08004224   0x00000174   Code   RO         3264    i.print_object      cjson.o
    0x08004398   0x08004398   0x00000010   Code   RO         3265    i.print_string      cjson.o
    0x080043a8   0x080043a8   0x00000174   Code   RO         3266    i.print_string_ptr  cjson.o
    0x0800451c   0x0800451c   0x00000104   Code   RO         3267    i.print_value       cjson.o
    0x08004620   0x08004620   0x0000006c   Code   RO         4942    i.realloc           mc_w.l(mallocr.o)
    0x0800468c   0x0800468c   0x00000194   Code   RO         4519    i.receive_order     order.o
    0x08004820   0x08004820   0x00000174   Code   RO         4392    i.send_indent       uasrttft.o
    0x08004994   0x08004994   0x0000000c   Code   RO         4457    i.setCodePage       scancode.o
    0x080049a0   0x080049a0   0x00000028   Code   RO         4393    i.setReturnOpenmv   uasrttft.o
    0x080049c8   0x080049c8   0x00000020   Code   RO         4458    i.setScanCode       scancode.o
    0x080049e8   0x080049e8   0x0000003c   Code   RO         3271    i.skip_utf8_bom     cjson.o
    0x08004a24   0x08004a24   0x00000014   Code   RO         4239    i.strart_face       openmv.o
    0x08004a38   0x08004a38   0x0000001c   Code   RO         4646    i.strtod            m_ws.l(strtod.o)
    0x08004a54   0x08004a54   0x00000006   Code   RO         3272    i.suffix_object     cjson.o
    0x08004a5a   0x08004a5a   0x00000002   PAD
    0x08004a5c   0x08004a5c   0x00000088   Code   RO         4520    i.update_code       order.o
    0x08004ae4   0x08004ae4   0x00000024   Code   RO         3273    i.update_offset     cjson.o
    0x08004b08   0x08004b08   0x0000001e   Code   RO         4014    i.usart_send_byte   usart.o
    0x08004b26   0x08004b26   0x0000001c   Code   RO         4015    i.usart_send_string  usart.o
    0x08004b42   0x08004b42   0x0000012c   Code   RO         3274    i.utf16_literal_to_utf8  cjson.o
    0x08004c6e   0x08004c6e   0x00000002   PAD
    0x08004c70   0x08004c70   0x00000010   Data   RO         3968    .constdata          task.o
    0x08004c80   0x08004c80   0x00000081   Data   RO         5025    .constdata          mc_w.l(ctype_o.o)
    0x08004d01   0x08004d01   0x00000003   PAD
    0x08004d04   0x08004d04   0x00000004   Data   RO         5026    .constdata          mc_w.l(ctype_o.o)
    0x08004d08   0x08004d08   0x00000020   Data   RO         5091    Region$$Table       anon$$obj.o


    Execution Region RW_IRAM1 (Exec base: 0x20000000, Load base: 0x08004d28, Size: 0x00004560, Max: 0x00010000, ABSOLUTE)

    Exec Addr    Load Addr    Size         Type   Attr      Idx    E Section Name        Object

    0x20000000   0x08004d28   0x00000014   Data   RW         1738    .data               stm32f10x_rcc.o
    0x20000014   0x08004d3c   0x00000014   Data   RW         3276    .data               cjson.o
    0x20000028   0x08004d50   0x0000000a   Data   RW         4017    .data               usart.o
    0x20000032   0x08004d5a   0x00000002   PAD
    0x20000034   0x08004d5c   0x00000004   Data   RW         4170    .data               goods.o
    0x20000038   0x08004d60   0x00000004   Data   RW         4205    .data               user.o
    0x2000003c   0x08004d64   0x00000003   Data   RW         4395    .data               uasrttft.o
    0x2000003f   0x08004d67   0x00000001   Data   RW         4460    .data               scancode.o
    0x20000040   0x08004d68   0x00000002   Data   RW         4521    .data               order.o
    0x20000042   0x08004d6a   0x00000002   PAD
    0x20000044   0x08004d6c   0x00000004   Data   RW         5013    .data               mc_w.l(stdout.o)
    0x20000048   0x08004d70   0x00000004   Data   RW         5052    .data               mc_w.l(mvars.o)
    0x2000004c   0x08004d74   0x00000004   Data   RW         5053    .data               mc_w.l(mvars.o)
    0x20000050        -       0x00000048   Zero   RW         3928    .bss                systick.o
    0x20000098        -       0x00000500   Zero   RW         4016    .bss                usart.o
    0x20000598        -       0x00000c80   Zero   RW         4169    .bss                goods.o
    0x20001218        -       0x00000370   Zero   RW         4204    .bss                user.o
    0x20001588        -       0x00000020   Zero   RW         4394    .bss                uasrttft.o
    0x200015a8        -       0x00001cb4   Zero   RW         4459    .bss                scancode.o
    0x2000325c   0x08004d78   0x00000004   PAD
    0x20003260        -       0x00000f00   Zero   RW            2    HEAP                startup_stm32f10x_hd.o
    0x20004160        -       0x00000400   Zero   RW            1    STACK               startup_stm32f10x_hd.o


==============================================================================

Image component sizes


      Code (inc. data)   RO Data    RW Data    ZI Data      Debug   Object Name

      5186        178          0         20          0      37155   cjson.o
         0          0          0          0          0       4504   core_cm3.o
         0          0          0          0          0       1228   data_helper.o
       604        284          0          4       3200       1792   goods.o
        96          0          0          0          0       1411   main.o
       132         22          0          0          0       1563   misc.o
        32          8          0          0          0       1314   openmv.o
       540        168          0          2          0       2199   order.o
       932        258          0          1       7348       5401   scancode.o
       242         24          0          0          0       2088   servo.o
        36          8        304          0       4864        880   startup_stm32f10x_hd.o
       278          0          0          0          0       1972   stm32f10x_gpio.o
        24          0          0          0          0       3632   stm32f10x_it.o
       276         32          0         20          0       4490   stm32f10x_rcc.o
       388         52          0          0          0       4094   stm32f10x_tim.o
       490          6          0          0          0       7397   stm32f10x_usart.o
        24          0          0          0          0      18454   system.o
       328         28          0          0          0     250461   system_stm32f10x.o
       176         26          0          0         72      17368   systick.o
       112         30         16          0          0       1552   task.o
       612        228          0          3         32       2596   uasrttft.o
      1486        188          0         10       1280      10413   usart.o
        72         32          0          4        880       1561   user.o

    ----------------------------------------------------------------------
     12090       1572        352         68      17680     383525   Object Totals
         0          0         32          0          0          0   (incl. Generated)
        24          0          0          4          4          0   (incl. Padding)

    ----------------------------------------------------------------------

      Code (inc. data)   RO Data    RW Data    ZI Data      Debug   Library Member Name

        28          0          0          0          0         80   strtod.o
        56          8          0          0          0         84   __0sscanf.o
       812          4          0          0          0        112   _scanf.o
        64          0          0          0          0         84   _sgetc.o
         8          4        133          0          0         68   ctype_o.o
         0          0          0          0          0          0   entry.o
         0          0          0          0          0          0   entry10a.o
         0          0          0          0          0          0   entry11a.o
         8          4          0          0          0          0   entry2.o
         4          0          0          0          0          0   entry5.o
         0          0          0          0          0          0   entry7b.o
         0          0          0          0          0          0   entry8b.o
         8          4          0          0          0          0   entry9a.o
        30          0          0          0          0          0   handlers.o
        36          8          0          0          0         68   init.o
        18          0          0          0          0         76   isspace_o.o
         0          0          0          0          0          0   iusefp.o
        30          0          0          0          0         68   llshl.o
        36          0          0          0          0         68   llsshr.o
        32          0          0          0          0         68   llushr.o
       360         30          0          0          0        356   mallocr.o
        36          0          0          0          0         68   memcpya.o
        36          0          0          0          0        108   memseta.o
         0          0          0          8          0          0   mvars.o
      2338        100          0          0          0        748   printfa.o
        40          8          0          0          0         84   scanf_char.o
       838         12          0          0          0        216   scanf_fp.o
         0          0          0          4          0          0   stdout.o
        24          0          0          0          0         68   strcat.o
        28          0          0          0          0         76   strcmp.o
        18          0          0          0          0         68   strcpy.o
        14          0          0          0          0         68   strlen.o
        30          0          0          0          0         80   strncmp.o
       156         14          0          0          0        120   strtod.o
        12          0          0          0          0         68   tolower.o
        44          0          0          0          0         80   uidiv.o
        98          0          0          0          0         92   uldiv.o
        48          0          0          0          0         68   cdcmple.o
        48          0          0          0          0         68   cdrcmple.o
        56          0          0          0          0         88   d2f.o
       334          0          0          0          0        148   dadd.o
       222          0          0          0          0        100   ddiv.o
       186          0          0          0          0        176   depilogue.o
        62          0          0          0          0         80   dfixi.o
        48          0          0          0          0         68   dfixul.o
        34          0          0          0          0         76   dflti.o
        26          0          0          0          0         76   dfltui.o
        24          0          0          0          0         76   dfltul.o
       228          0          0          0          0         96   dmul.o
        38          0          0          0          0         68   f2d.o
       176          0          0          0          0        140   fadd.o
       124          0          0          0          0         88   fdiv.o
       110          0          0          0          0        168   fepilogue.o
        40          0          0          0          0         68   ffixui.o
        18          0          0          0          0         68   fflti.o
       100          0          0          0          0         76   fmul.o

    ----------------------------------------------------------------------
      7174        196        136         12          0       4872   Library Totals
        10          0          3          0          0          0   (incl. Padding)

    ----------------------------------------------------------------------

      Code (inc. data)   RO Data    RW Data    ZI Data      Debug   Library Name

        28          0          0          0          0         80   m_ws.l
      5214        196        133         12          0       2996   mc_w.l
      1922          0          0          0          0       1796   mf_w.l

    ----------------------------------------------------------------------
      7174        196        136         12          0       4872   Library Totals

    ----------------------------------------------------------------------

==============================================================================


      Code (inc. data)   RO Data    RW Data    ZI Data      Debug   

     19264       1768        488         80      17680     379969   Grand Totals
     19264       1768        488         80      17680     379969   ELF Image Totals
     19264       1768        488         80          0          0   ROM Totals

==============================================================================

    Total RO  Size (Code + RO Data)                19752 (  19.29kB)
    Total RW  Size (RW Data + ZI Data)             17760 (  17.34kB)
    Total ROM Size (Code + RO Data + RW Data)      19832 (  19.37kB)

==============================================================================

